SF:/Users/terry/RustroverProjects/rain-tracker-service/src/api.rs
FN:249,_RNCNCNCNvNtCs7iCqo0KpDVZ_20rain_tracker_service3api10get_latest000B9_
FN:256,_RNCNCNCNvNtCs7iCqo0KpDVZ_20rain_tracker_service3api10get_latest00s_0B9_
FN:295,_RNCNCNCNvNtCs7iCqo0KpDVZ_20rain_tracker_service3api14get_all_gauges000B9_
FN:168,_RNCNCNCNvNtCs7iCqo0KpDVZ_20rain_tracker_service3api14get_water_year000B9_
FN:335,_RNCNCNCNvNtCs7iCqo0KpDVZ_20rain_tracker_service3api15get_gauge_by_id000B9_
FN:339,_RNCNCNCNvNtCs7iCqo0KpDVZ_20rain_tracker_service3api15get_gauge_by_id00s_0B9_
FN:210,_RNCNCNCNvNtCs7iCqo0KpDVZ_20rain_tracker_service3api17get_calendar_year000B9_
FN:243,_RNCNvNtCs7iCqo0KpDVZ_20rain_tracker_service3api10get_latest0B5_
FN:96,_RNCNvNtCs7iCqo0KpDVZ_20rain_tracker_service3api12openapi_spec0B5_
FN:285,_RNCNvNtCs7iCqo0KpDVZ_20rain_tracker_service3api14get_all_gauges0B5_
FN:159,_RNCNvNtCs7iCqo0KpDVZ_20rain_tracker_service3api14get_water_year0B5_
FN:328,_RNCNvNtCs7iCqo0KpDVZ_20rain_tracker_service3api15get_gauge_by_id0B5_
FN:201,_RNCNvNtCs7iCqo0KpDVZ_20rain_tracker_service3api17get_calendar_year0B5_
FN:133,_RNCNvNtCs7iCqo0KpDVZ_20rain_tracker_service3api6health0B5_
FN:100,_RNCNvNtCs7iCqo0KpDVZ_20rain_tracker_service3api8redoc_ui0B5_
FN:240,_RNvNtCs7iCqo0KpDVZ_20rain_tracker_service3api10get_latest
FN:96,_RNvNtCs7iCqo0KpDVZ_20rain_tracker_service3api12openapi_spec
FN:28,_RNvNtCs7iCqo0KpDVZ_20rain_tracker_service3api13create_router
FN:282,_RNvNtCs7iCqo0KpDVZ_20rain_tracker_service3api14get_all_gauges
FN:156,_RNvNtCs7iCqo0KpDVZ_20rain_tracker_service3api14get_water_year
FN:325,_RNvNtCs7iCqo0KpDVZ_20rain_tracker_service3api15get_gauge_by_id
FN:198,_RNvNtCs7iCqo0KpDVZ_20rain_tracker_service3api17get_calendar_year
FN:92,_RNvNtCs7iCqo0KpDVZ_20rain_tracker_service3api21generate_openapi_spec
FN:133,_RNvNtCs7iCqo0KpDVZ_20rain_tracker_service3api6health
FN:100,_RNvNtCs7iCqo0KpDVZ_20rain_tracker_service3api8redoc_ui
FN:249,_RNCNCNCNvNtCs4I6j3VtXKYU_20rain_tracker_service3api10get_latest000B9_
FN:256,_RNCNCNCNvNtCs4I6j3VtXKYU_20rain_tracker_service3api10get_latest00s_0B9_
FN:295,_RNCNCNCNvNtCs4I6j3VtXKYU_20rain_tracker_service3api14get_all_gauges000B9_
FN:168,_RNCNCNCNvNtCs4I6j3VtXKYU_20rain_tracker_service3api14get_water_year000B9_
FN:335,_RNCNCNCNvNtCs4I6j3VtXKYU_20rain_tracker_service3api15get_gauge_by_id000B9_
FN:339,_RNCNCNCNvNtCs4I6j3VtXKYU_20rain_tracker_service3api15get_gauge_by_id00s_0B9_
FN:210,_RNCNCNCNvNtCs4I6j3VtXKYU_20rain_tracker_service3api17get_calendar_year000B9_
FN:243,_RNCNvNtCs4I6j3VtXKYU_20rain_tracker_service3api10get_latest0B5_
FN:96,_RNCNvNtCs4I6j3VtXKYU_20rain_tracker_service3api12openapi_spec0B5_
FN:285,_RNCNvNtCs4I6j3VtXKYU_20rain_tracker_service3api14get_all_gauges0B5_
FN:159,_RNCNvNtCs4I6j3VtXKYU_20rain_tracker_service3api14get_water_year0B5_
FN:328,_RNCNvNtCs4I6j3VtXKYU_20rain_tracker_service3api15get_gauge_by_id0B5_
FN:201,_RNCNvNtCs4I6j3VtXKYU_20rain_tracker_service3api17get_calendar_year0B5_
FN:133,_RNCNvNtCs4I6j3VtXKYU_20rain_tracker_service3api6health0B5_
FN:100,_RNCNvNtCs4I6j3VtXKYU_20rain_tracker_service3api8redoc_ui0B5_
FN:240,_RNvNtCs4I6j3VtXKYU_20rain_tracker_service3api10get_latest
FN:96,_RNvNtCs4I6j3VtXKYU_20rain_tracker_service3api12openapi_spec
FN:28,_RNvNtCs4I6j3VtXKYU_20rain_tracker_service3api13create_router
FN:282,_RNvNtCs4I6j3VtXKYU_20rain_tracker_service3api14get_all_gauges
FN:156,_RNvNtCs4I6j3VtXKYU_20rain_tracker_service3api14get_water_year
FN:325,_RNvNtCs4I6j3VtXKYU_20rain_tracker_service3api15get_gauge_by_id
FN:198,_RNvNtCs4I6j3VtXKYU_20rain_tracker_service3api17get_calendar_year
FN:92,_RNvNtCs4I6j3VtXKYU_20rain_tracker_service3api21generate_openapi_spec
FN:133,_RNvNtCs4I6j3VtXKYU_20rain_tracker_service3api6health
FN:100,_RNvNtCs4I6j3VtXKYU_20rain_tracker_service3api8redoc_ui
FNDA:0,_RNCNCNCNvNtCs7iCqo0KpDVZ_20rain_tracker_service3api10get_latest000B9_
FNDA:1,_RNCNCNCNvNtCs7iCqo0KpDVZ_20rain_tracker_service3api10get_latest00s_0B9_
FNDA:0,_RNCNCNCNvNtCs7iCqo0KpDVZ_20rain_tracker_service3api14get_all_gauges000B9_
FNDA:0,_RNCNCNCNvNtCs7iCqo0KpDVZ_20rain_tracker_service3api14get_water_year000B9_
FNDA:0,_RNCNCNCNvNtCs7iCqo0KpDVZ_20rain_tracker_service3api15get_gauge_by_id000B9_
FNDA:1,_RNCNCNCNvNtCs7iCqo0KpDVZ_20rain_tracker_service3api15get_gauge_by_id00s_0B9_
FNDA:0,_RNCNCNCNvNtCs7iCqo0KpDVZ_20rain_tracker_service3api17get_calendar_year000B9_
FNDA:2,_RNCNvNtCs7iCqo0KpDVZ_20rain_tracker_service3api10get_latest0B5_
FNDA:1,_RNCNvNtCs7iCqo0KpDVZ_20rain_tracker_service3api12openapi_spec0B5_
FNDA:2,_RNCNvNtCs7iCqo0KpDVZ_20rain_tracker_service3api14get_all_gauges0B5_
FNDA:1,_RNCNvNtCs7iCqo0KpDVZ_20rain_tracker_service3api14get_water_year0B5_
FNDA:2,_RNCNvNtCs7iCqo0KpDVZ_20rain_tracker_service3api15get_gauge_by_id0B5_
FNDA:1,_RNCNvNtCs7iCqo0KpDVZ_20rain_tracker_service3api17get_calendar_year0B5_
FNDA:1,_RNCNvNtCs7iCqo0KpDVZ_20rain_tracker_service3api6health0B5_
FNDA:1,_RNCNvNtCs7iCqo0KpDVZ_20rain_tracker_service3api8redoc_ui0B5_
FNDA:2,_RNvNtCs7iCqo0KpDVZ_20rain_tracker_service3api10get_latest
FNDA:1,_RNvNtCs7iCqo0KpDVZ_20rain_tracker_service3api12openapi_spec
FNDA:11,_RNvNtCs7iCqo0KpDVZ_20rain_tracker_service3api13create_router
FNDA:2,_RNvNtCs7iCqo0KpDVZ_20rain_tracker_service3api14get_all_gauges
FNDA:1,_RNvNtCs7iCqo0KpDVZ_20rain_tracker_service3api14get_water_year
FNDA:2,_RNvNtCs7iCqo0KpDVZ_20rain_tracker_service3api15get_gauge_by_id
FNDA:1,_RNvNtCs7iCqo0KpDVZ_20rain_tracker_service3api17get_calendar_year
FNDA:1,_RNvNtCs7iCqo0KpDVZ_20rain_tracker_service3api21generate_openapi_spec
FNDA:1,_RNvNtCs7iCqo0KpDVZ_20rain_tracker_service3api6health
FNDA:1,_RNvNtCs7iCqo0KpDVZ_20rain_tracker_service3api8redoc_ui
FNDA:0,_RNCNCNCNvNtCs4I6j3VtXKYU_20rain_tracker_service3api10get_latest000B9_
FNDA:0,_RNCNCNCNvNtCs4I6j3VtXKYU_20rain_tracker_service3api10get_latest00s_0B9_
FNDA:0,_RNCNCNCNvNtCs4I6j3VtXKYU_20rain_tracker_service3api14get_all_gauges000B9_
FNDA:0,_RNCNCNCNvNtCs4I6j3VtXKYU_20rain_tracker_service3api14get_water_year000B9_
FNDA:0,_RNCNCNCNvNtCs4I6j3VtXKYU_20rain_tracker_service3api15get_gauge_by_id000B9_
FNDA:0,_RNCNCNCNvNtCs4I6j3VtXKYU_20rain_tracker_service3api15get_gauge_by_id00s_0B9_
FNDA:0,_RNCNCNCNvNtCs4I6j3VtXKYU_20rain_tracker_service3api17get_calendar_year000B9_
FNDA:0,_RNCNvNtCs4I6j3VtXKYU_20rain_tracker_service3api10get_latest0B5_
FNDA:0,_RNCNvNtCs4I6j3VtXKYU_20rain_tracker_service3api12openapi_spec0B5_
FNDA:0,_RNCNvNtCs4I6j3VtXKYU_20rain_tracker_service3api14get_all_gauges0B5_
FNDA:0,_RNCNvNtCs4I6j3VtXKYU_20rain_tracker_service3api14get_water_year0B5_
FNDA:0,_RNCNvNtCs4I6j3VtXKYU_20rain_tracker_service3api15get_gauge_by_id0B5_
FNDA:0,_RNCNvNtCs4I6j3VtXKYU_20rain_tracker_service3api17get_calendar_year0B5_
FNDA:0,_RNCNvNtCs4I6j3VtXKYU_20rain_tracker_service3api6health0B5_
FNDA:0,_RNCNvNtCs4I6j3VtXKYU_20rain_tracker_service3api8redoc_ui0B5_
FNDA:0,_RNvNtCs4I6j3VtXKYU_20rain_tracker_service3api10get_latest
FNDA:0,_RNvNtCs4I6j3VtXKYU_20rain_tracker_service3api12openapi_spec
FNDA:0,_RNvNtCs4I6j3VtXKYU_20rain_tracker_service3api13create_router
FNDA:0,_RNvNtCs4I6j3VtXKYU_20rain_tracker_service3api14get_all_gauges
FNDA:0,_RNvNtCs4I6j3VtXKYU_20rain_tracker_service3api14get_water_year
FNDA:0,_RNvNtCs4I6j3VtXKYU_20rain_tracker_service3api15get_gauge_by_id
FNDA:0,_RNvNtCs4I6j3VtXKYU_20rain_tracker_service3api17get_calendar_year
FNDA:0,_RNvNtCs4I6j3VtXKYU_20rain_tracker_service3api21generate_openapi_spec
FNDA:0,_RNvNtCs4I6j3VtXKYU_20rain_tracker_service3api6health
FNDA:0,_RNvNtCs4I6j3VtXKYU_20rain_tracker_service3api8redoc_ui
FNF:25
FNH:20
DA:28,11
DA:29,11
DA:30,11
DA:31,11
DA:32,11
DA:33,11
DA:35,11
DA:36,11
DA:37,11
DA:39,11
DA:40,11
DA:41,11
DA:42,11
DA:44,11
DA:45,11
DA:46,11
DA:47,11
DA:48,11
DA:92,1
DA:93,1
DA:94,1
DA:96,1
DA:97,1
DA:98,1
DA:100,1
DA:101,1
DA:102,1
DA:103,1
DA:104,1
DA:105,1
DA:106,1
DA:107,1
DA:108,1
DA:109,1
DA:110,1
DA:111,1
DA:112,1
DA:113,1
DA:114,1
DA:115,1
DA:116,1
DA:117,1
DA:118,1
DA:119,1
DA:120,1
DA:121,1
DA:122,1
DA:133,1
DA:140,1
DA:156,1
DA:157,1
DA:158,1
DA:159,1
DA:168,0
DA:169,0
DA:170,0
DA:173,0
DA:174,0
DA:182,1
DA:198,1
DA:199,1
DA:200,1
DA:201,1
DA:210,0
DA:211,0
DA:212,0
DA:215,0
DA:216,0
DA:224,1
DA:240,2
DA:241,2
DA:242,2
DA:243,2
DA:249,0
DA:250,0
DA:251,0
DA:254,0
DA:255,0
DA:256,1
DA:257,1
DA:258,1
DA:259,1
DA:267,2
DA:282,2
DA:283,2
DA:284,2
DA:285,2
DA:295,0
DA:296,0
DA:297,0
DA:298,0
DA:309,2
DA:325,2
DA:326,2
DA:327,2
DA:328,2
DA:335,0
DA:336,0
DA:337,0
DA:338,0
DA:339,1
DA:340,1
DA:341,1
DA:342,1
DA:346,2
BRF:0
BRH:0
LF:113
LH:90
end_of_record
SF:/Users/terry/RustroverProjects/rain-tracker-service/src/bin/check_gauge.rs
FN:151,_RNCNCNvCshG6PWvhSQlR_11check_gauge4main0s8_0B5_
FN:17,_RNCNvCshG6PWvhSQlR_11check_gauge4main0B3_
FN:17,_RNvCshG6PWvhSQlR_11check_gauge4main
FN:151,_RNCNCNvCshcH33ULiCEB_11check_gauge4main0s8_0B5_
FN:17,_RNCNvCshcH33ULiCEB_11check_gauge4main0B3_
FN:17,_RNvCshcH33ULiCEB_11check_gauge4main
FNDA:0,_RNCNCNvCshG6PWvhSQlR_11check_gauge4main0s8_0B5_
FNDA:0,_RNCNvCshG6PWvhSQlR_11check_gauge4main0B3_
FNDA:0,_RNvCshG6PWvhSQlR_11check_gauge4main
FNDA:0,_RNCNCNvCshcH33ULiCEB_11check_gauge4main0s8_0B5_
FNDA:0,_RNCNvCshcH33ULiCEB_11check_gauge4main0B3_
FNDA:0,_RNvCshcH33ULiCEB_11check_gauge4main
FNF:3
FNH:0
DA:17,0
DA:18,0
DA:19,0
DA:21,0
DA:22,0
DA:23,0
DA:24,0
DA:26,0
DA:29,0
DA:39,0
DA:40,0
DA:42,0
DA:43,0
DA:44,0
DA:45,0
DA:48,0
DA:56,0
DA:57,0
DA:59,0
DA:62,0
DA:72,0
DA:73,0
DA:75,0
DA:76,0
DA:81,0
DA:91,0
DA:92,0
DA:94,0
DA:95,0
DA:96,0
DA:97,0
DA:98,0
DA:99,0
DA:100,0
DA:103,0
DA:104,0
DA:105,0
DA:106,0
DA:107,0
DA:108,0
DA:109,0
DA:110,0
DA:111,0
DA:112,0
DA:113,0
DA:115,0
DA:116,0
DA:117,0
DA:118,0
DA:121,0
DA:122,0
DA:123,0
DA:124,0
DA:125,0
DA:126,0
DA:127,0
DA:128,0
DA:129,0
DA:130,0
DA:131,0
DA:133,0
DA:134,0
DA:135,0
DA:137,0
DA:138,0
DA:139,0
DA:140,0
DA:141,0
DA:143,0
DA:146,0
DA:147,0
DA:148,0
DA:149,0
DA:150,0
DA:151,0
DA:152,0
DA:153,0
DA:156,0
DA:157,0
BRF:0
BRH:0
LF:82
LH:0
end_of_record
SF:/Users/terry/RustroverProjects/rain-tracker-service/src/bin/check_gauges.rs
FN:10,_RNCNvCseMYvIYoIfwb_12check_gauges4main0B3_
FN:25,_RNCNvCseMYvIYoIfwb_12check_gauges4mains0_0B3_
FN:39,_RNCNvCseMYvIYoIfwb_12check_gauges4mains1_0B3_
FN:15,_RNCNvCseMYvIYoIfwb_12check_gauges4mains_0B3_
FN:3,_RNvCseMYvIYoIfwb_12check_gauges4main
FN:10,_RNCNvCsgbgIV4MKTsN_12check_gauges4main0B3_
FN:25,_RNCNvCsgbgIV4MKTsN_12check_gauges4mains0_0B3_
FN:39,_RNCNvCsgbgIV4MKTsN_12check_gauges4mains1_0B3_
FN:15,_RNCNvCsgbgIV4MKTsN_12check_gauges4mains_0B3_
FN:3,_RNvCsgbgIV4MKTsN_12check_gauges4main
FNDA:0,_RNCNvCseMYvIYoIfwb_12check_gauges4main0B3_
FNDA:0,_RNCNvCseMYvIYoIfwb_12check_gauges4mains0_0B3_
FNDA:0,_RNCNvCseMYvIYoIfwb_12check_gauges4mains1_0B3_
FNDA:0,_RNCNvCseMYvIYoIfwb_12check_gauges4mains_0B3_
FNDA:0,_RNvCseMYvIYoIfwb_12check_gauges4main
FNDA:0,_RNCNvCsgbgIV4MKTsN_12check_gauges4main0B3_
FNDA:0,_RNCNvCsgbgIV4MKTsN_12check_gauges4mains0_0B3_
FNDA:0,_RNCNvCsgbgIV4MKTsN_12check_gauges4mains1_0B3_
FNDA:0,_RNCNvCsgbgIV4MKTsN_12check_gauges4mains_0B3_
FNDA:0,_RNvCsgbgIV4MKTsN_12check_gauges4main
FNF:5
FNH:0
DA:3,0
DA:4,0
DA:5,0
DA:8,0
DA:9,0
DA:10,0
DA:11,0
DA:13,0
DA:14,0
DA:15,0
DA:16,0
DA:18,0
DA:19,0
DA:20,0
DA:21,0
DA:22,0
DA:23,0
DA:24,0
DA:25,0
DA:26,0
DA:27,0
DA:28,0
DA:30,0
DA:32,0
DA:33,0
DA:34,0
DA:35,0
DA:36,0
DA:37,0
DA:38,0
DA:39,0
DA:40,0
DA:41,0
DA:42,0
DA:44,0
DA:45,0
DA:47,0
DA:48,0
BRF:0
BRH:0
LF:42
LH:0
end_of_record
SF:/Users/terry/RustroverProjects/rain-tracker-service/src/bin/cleanup_pdf_data.rs
FN:4,_RNCNvCsiM8Jf8Ngqyn_16cleanup_pdf_data4main0B3_
FN:4,_RNvCsiM8Jf8Ngqyn_16cleanup_pdf_data4main
FN:4,_RNCNvCsflO90TXlLTh_16cleanup_pdf_data4main0B3_
FN:4,_RNvCsflO90TXlLTh_16cleanup_pdf_data4main
FNDA:0,_RNCNvCsiM8Jf8Ngqyn_16cleanup_pdf_data4main0B3_
FNDA:0,_RNvCsiM8Jf8Ngqyn_16cleanup_pdf_data4main
FNDA:0,_RNCNvCsflO90TXlLTh_16cleanup_pdf_data4main0B3_
FNDA:0,_RNvCsflO90TXlLTh_16cleanup_pdf_data4main
FNF:2
FNH:0
DA:4,0
DA:5,0
DA:7,0
DA:8,0
DA:9,0
DA:10,0
DA:11,0
DA:13,0
DA:14,0
DA:15,0
DA:16,0
DA:18,0
DA:20,0
DA:21,0
BRF:0
BRH:0
LF:16
LH:0
end_of_record
SF:/Users/terry/RustroverProjects/rain-tracker-service/src/bin/examine_fopr.rs
FN:39,_RNCNvCs8T7C7yQZq0N_12examine_fopr4main0B3_
FN:4,_RNvCs8T7C7yQZq0N_12examine_fopr4main
FN:4,_RNvCs7TeQsbjdJd2_12examine_fopr4main
FN:39,_RNCNvCs7TeQsbjdJd2_12examine_fopr4main0B3_
FNDA:0,_RNCNvCs8T7C7yQZq0N_12examine_fopr4main0B3_
FNDA:0,_RNvCs8T7C7yQZq0N_12examine_fopr4main
FNDA:0,_RNvCs7TeQsbjdJd2_12examine_fopr4main
FNDA:0,_RNCNvCs7TeQsbjdJd2_12examine_fopr4main0B3_
FNF:2
FNH:0
DA:4,0
DA:5,0
DA:6,0
DA:7,0
DA:9,0
DA:12,0
DA:13,0
DA:15,0
DA:16,0
DA:17,0
DA:18,0
DA:21,0
DA:22,0
DA:25,0
DA:28,0
DA:29,0
DA:31,0
DA:33,0
DA:34,0
DA:35,0
DA:37,0
DA:39,0
DA:40,0
DA:41,0
DA:42,0
DA:43,0
DA:44,0
DA:45,0
DA:46,0
DA:47,0
DA:49,0
DA:50,0
DA:54,0
DA:55,0
DA:56,0
DA:57,0
DA:58,0
DA:59,0
DA:60,0
DA:61,0
DA:63,0
DA:65,0
DA:66,0
BRF:0
BRH:0
LF:44
LH:0
end_of_record
SF:/Users/terry/RustroverProjects/rain-tracker-service/src/bin/generate-openapi.rs
FN:4,_RNvCseo76KAVFoYV_16generate_openapi4main
FN:4,_RNvCsi5RTaF9ZD34_16generate_openapi4main
FNDA:0,_RNvCseo76KAVFoYV_16generate_openapi4main
FNDA:0,_RNvCsi5RTaF9ZD34_16generate_openapi4main
FNF:1
FNH:0
DA:4,0
DA:5,0
DA:6,0
DA:8,0
DA:9,0
DA:10,0
BRF:0
BRH:0
LF:6
LH:0
end_of_record
SF:/Users/terry/RustroverProjects/rain-tracker-service/src/bin/historical_import.rs
FN:656,_RNCNCNCNvCsiQXDVBjr1mq_17historical_import11import_fopr000B7_
FN:663,_RNCNCNCNvCsiQXDVBjr1mq_17historical_import11import_fopr00s0_0B7_
FN:660,_RNCNCNCNvCsiQXDVBjr1mq_17historical_import11import_fopr00s_0B7_
FN:1042,_RNCNCNCNvCsiQXDVBjr1mq_17historical_import16bulk_fopr_import000B7_
FN:468,_RNCNCNvCsiQXDVBjr1mq_17historical_import10import_pdf00B5_
FN:506,_RNCNCNvCsiQXDVBjr1mq_17historical_import10import_pdf0s_0B5_
FN:650,_RNCNCNvCsiQXDVBjr1mq_17historical_import11import_fopr00B5_
FN:669,_RNCNCNvCsiQXDVBjr1mq_17historical_import11import_fopr0s0_0B5_
FN:702,_RNCNCNvCsiQXDVBjr1mq_17historical_import11import_fopr0s1_0B5_
FN:668,_RNCNCNvCsiQXDVBjr1mq_17historical_import11import_fopr0s_0B5_
FN:281,_RNCNCNvCsiQXDVBjr1mq_17historical_import12import_excel00B5_
FN:317,_RNCNCNvCsiQXDVBjr1mq_17historical_import12import_excel0s_0B5_
FN:1287,_RNCNCNvCsiQXDVBjr1mq_17historical_import15load_water_year00B5_
FN:1370,_RNCNCNvCsiQXDVBjr1mq_17historical_import15load_water_year0s_0B5_
FN:1039,_RNCNCNvCsiQXDVBjr1mq_17historical_import16bulk_fopr_import00B5_
FN:1684,_RNCNCNvCsiQXDVBjr1mq_17historical_import19print_gauge_summarys_00B5_
FN:1542,_RNCNCNvCsiQXDVBjr1mq_17historical_import21insert_readings_batch00B5_
FN:148,_RNCNCNvCsiQXDVBjr1mq_17historical_import4main00B5_
FN:430,_RNCNvCsiQXDVBjr1mq_17historical_import10import_pdf0B3_
FN:618,_RNCNvCsiQXDVBjr1mq_17historical_import11import_fopr0B3_
FN:240,_RNCNvCsiQXDVBjr1mq_17historical_import12import_excel0B3_
FN:1442,_RNCNvCsiQXDVBjr1mq_17historical_import15load_bulk_years0B3_
FN:960,_RNCNvCsiQXDVBjr1mq_17historical_import15load_gauge_list0B3_
FN:962,_RNCNvCsiQXDVBjr1mq_17historical_import15load_gauge_lists0_0B3_
FN:961,_RNCNvCsiQXDVBjr1mq_17historical_import15load_gauge_lists_0B3_
FN:1202,_RNCNvCsiQXDVBjr1mq_17historical_import15load_water_year0B3_
FN:978,_RNCNvCsiQXDVBjr1mq_17historical_import16bulk_fopr_import0B3_
FN:1657,_RNCNvCsiQXDVBjr1mq_17historical_import19print_gauge_summary0B3_
FN:1667,_RNCNvCsiQXDVBjr1mq_17historical_import19print_gauge_summarys_0B3_
FN:1524,_RNCNvCsiQXDVBjr1mq_17historical_import21insert_readings_batch0B3_
FN:836,_RNCNvCsiQXDVBjr1mq_17historical_import24download_and_import_fopr0B3_
FN:1120,_RNCNvCsiQXDVBjr1mq_17historical_import31download_and_import_fopr_silent0B3_
FN:140,_RNCNvCsiQXDVBjr1mq_17historical_import4main0B3_
FN:424,_RNvCsiQXDVBjr1mq_17historical_import10import_pdf
FN:613,_RNvCsiQXDVBjr1mq_17historical_import11import_fopr
FN:235,_RNvCsiQXDVBjr1mq_17historical_import12import_excel
FN:1707,_RNvCsiQXDVBjr1mq_17historical_import13print_summary
FN:1435,_RNvCsiQXDVBjr1mq_17historical_import15load_bulk_years
FN:954,_RNvCsiQXDVBjr1mq_17historical_import15load_gauge_list
FN:1196,_RNvCsiQXDVBjr1mq_17historical_import15load_water_year
FN:970,_RNvCsiQXDVBjr1mq_17historical_import16bulk_fopr_import
FN:1749,_RNvCsiQXDVBjr1mq_17historical_import16month_date_range
FN:1631,_RNvCsiQXDVBjr1mq_17historical_import19print_gauge_summary
FN:1511,_RNvCsiQXDVBjr1mq_17historical_import21insert_readings_batch
FN:830,_RNvCsiQXDVBjr1mq_17historical_import24download_and_import_fopr
FN:93,_RNvCsiQXDVBjr1mq_17historical_import27calculate_cumulative_values
FN:909,_RNvCsiQXDVBjr1mq_17historical_import31discover_gauges_from_water_year
FN:1115,_RNvCsiQXDVBjr1mq_17historical_import31download_and_import_fopr_silent
FN:1145,_RNvCsiQXDVBjr1mq_17historical_import35calculate_cumulative_values_monthly
FN:140,_RNvCsiQXDVBjr1mq_17historical_import4main
FN:424,_RNvCs30uj6WIuzt3_17historical_import10import_pdf
FN:613,_RNvCs30uj6WIuzt3_17historical_import11import_fopr
FN:235,_RNvCs30uj6WIuzt3_17historical_import12import_excel
FN:1707,_RNvCs30uj6WIuzt3_17historical_import13print_summary
FN:1435,_RNvCs30uj6WIuzt3_17historical_import15load_bulk_years
FN:954,_RNvCs30uj6WIuzt3_17historical_import15load_gauge_list
FN:1196,_RNvCs30uj6WIuzt3_17historical_import15load_water_year
FN:970,_RNvCs30uj6WIuzt3_17historical_import16bulk_fopr_import
FN:1749,_RNvCs30uj6WIuzt3_17historical_import16month_date_range
FN:1631,_RNvCs30uj6WIuzt3_17historical_import19print_gauge_summary
FN:1511,_RNvCs30uj6WIuzt3_17historical_import21insert_readings_batch
FN:830,_RNvCs30uj6WIuzt3_17historical_import24download_and_import_fopr
FN:93,_RNvCs30uj6WIuzt3_17historical_import27calculate_cumulative_values
FN:909,_RNvCs30uj6WIuzt3_17historical_import31discover_gauges_from_water_year
FN:1115,_RNvCs30uj6WIuzt3_17historical_import31download_and_import_fopr_silent
FN:1145,_RNvCs30uj6WIuzt3_17historical_import35calculate_cumulative_values_monthly
FN:140,_RNvCs30uj6WIuzt3_17historical_import4main
FN:656,_RNCNCNCNvCs30uj6WIuzt3_17historical_import11import_fopr000B7_
FN:663,_RNCNCNCNvCs30uj6WIuzt3_17historical_import11import_fopr00s0_0B7_
FN:660,_RNCNCNCNvCs30uj6WIuzt3_17historical_import11import_fopr00s_0B7_
FN:1042,_RNCNCNCNvCs30uj6WIuzt3_17historical_import16bulk_fopr_import000B7_
FN:468,_RNCNCNvCs30uj6WIuzt3_17historical_import10import_pdf00B5_
FN:506,_RNCNCNvCs30uj6WIuzt3_17historical_import10import_pdf0s_0B5_
FN:650,_RNCNCNvCs30uj6WIuzt3_17historical_import11import_fopr00B5_
FN:669,_RNCNCNvCs30uj6WIuzt3_17historical_import11import_fopr0s0_0B5_
FN:702,_RNCNCNvCs30uj6WIuzt3_17historical_import11import_fopr0s1_0B5_
FN:668,_RNCNCNvCs30uj6WIuzt3_17historical_import11import_fopr0s_0B5_
FN:281,_RNCNCNvCs30uj6WIuzt3_17historical_import12import_excel00B5_
FN:317,_RNCNCNvCs30uj6WIuzt3_17historical_import12import_excel0s_0B5_
FN:1287,_RNCNCNvCs30uj6WIuzt3_17historical_import15load_water_year00B5_
FN:1370,_RNCNCNvCs30uj6WIuzt3_17historical_import15load_water_year0s_0B5_
FN:1039,_RNCNCNvCs30uj6WIuzt3_17historical_import16bulk_fopr_import00B5_
FN:1684,_RNCNCNvCs30uj6WIuzt3_17historical_import19print_gauge_summarys_00B5_
FN:1542,_RNCNCNvCs30uj6WIuzt3_17historical_import21insert_readings_batch00B5_
FN:148,_RNCNCNvCs30uj6WIuzt3_17historical_import4main00B5_
FN:430,_RNCNvCs30uj6WIuzt3_17historical_import10import_pdf0B3_
FN:618,_RNCNvCs30uj6WIuzt3_17historical_import11import_fopr0B3_
FN:240,_RNCNvCs30uj6WIuzt3_17historical_import12import_excel0B3_
FN:1442,_RNCNvCs30uj6WIuzt3_17historical_import15load_bulk_years0B3_
FN:960,_RNCNvCs30uj6WIuzt3_17historical_import15load_gauge_list0B3_
FN:962,_RNCNvCs30uj6WIuzt3_17historical_import15load_gauge_lists0_0B3_
FN:961,_RNCNvCs30uj6WIuzt3_17historical_import15load_gauge_lists_0B3_
FN:1202,_RNCNvCs30uj6WIuzt3_17historical_import15load_water_year0B3_
FN:978,_RNCNvCs30uj6WIuzt3_17historical_import16bulk_fopr_import0B3_
FN:1657,_RNCNvCs30uj6WIuzt3_17historical_import19print_gauge_summary0B3_
FN:1667,_RNCNvCs30uj6WIuzt3_17historical_import19print_gauge_summarys_0B3_
FN:1524,_RNCNvCs30uj6WIuzt3_17historical_import21insert_readings_batch0B3_
FN:836,_RNCNvCs30uj6WIuzt3_17historical_import24download_and_import_fopr0B3_
FN:1120,_RNCNvCs30uj6WIuzt3_17historical_import31download_and_import_fopr_silent0B3_
FN:140,_RNCNvCs30uj6WIuzt3_17historical_import4main0B3_
FNDA:0,_RNCNCNCNvCsiQXDVBjr1mq_17historical_import11import_fopr000B7_
FNDA:0,_RNCNCNCNvCsiQXDVBjr1mq_17historical_import11import_fopr00s0_0B7_
FNDA:0,_RNCNCNCNvCsiQXDVBjr1mq_17historical_import11import_fopr00s_0B7_
FNDA:0,_RNCNCNCNvCsiQXDVBjr1mq_17historical_import16bulk_fopr_import000B7_
FNDA:0,_RNCNCNvCsiQXDVBjr1mq_17historical_import10import_pdf00B5_
FNDA:0,_RNCNCNvCsiQXDVBjr1mq_17historical_import10import_pdf0s_0B5_
FNDA:0,_RNCNCNvCsiQXDVBjr1mq_17historical_import11import_fopr00B5_
FNDA:0,_RNCNCNvCsiQXDVBjr1mq_17historical_import11import_fopr0s0_0B5_
FNDA:0,_RNCNCNvCsiQXDVBjr1mq_17historical_import11import_fopr0s1_0B5_
FNDA:0,_RNCNCNvCsiQXDVBjr1mq_17historical_import11import_fopr0s_0B5_
FNDA:0,_RNCNCNvCsiQXDVBjr1mq_17historical_import12import_excel00B5_
FNDA:0,_RNCNCNvCsiQXDVBjr1mq_17historical_import12import_excel0s_0B5_
FNDA:0,_RNCNCNvCsiQXDVBjr1mq_17historical_import15load_water_year00B5_
FNDA:0,_RNCNCNvCsiQXDVBjr1mq_17historical_import15load_water_year0s_0B5_
FNDA:0,_RNCNCNvCsiQXDVBjr1mq_17historical_import16bulk_fopr_import00B5_
FNDA:0,_RNCNCNvCsiQXDVBjr1mq_17historical_import19print_gauge_summarys_00B5_
FNDA:0,_RNCNCNvCsiQXDVBjr1mq_17historical_import21insert_readings_batch00B5_
FNDA:0,_RNCNCNvCsiQXDVBjr1mq_17historical_import4main00B5_
FNDA:0,_RNCNvCsiQXDVBjr1mq_17historical_import10import_pdf0B3_
FNDA:0,_RNCNvCsiQXDVBjr1mq_17historical_import11import_fopr0B3_
FNDA:0,_RNCNvCsiQXDVBjr1mq_17historical_import12import_excel0B3_
FNDA:0,_RNCNvCsiQXDVBjr1mq_17historical_import15load_bulk_years0B3_
FNDA:0,_RNCNvCsiQXDVBjr1mq_17historical_import15load_gauge_list0B3_
FNDA:0,_RNCNvCsiQXDVBjr1mq_17historical_import15load_gauge_lists0_0B3_
FNDA:0,_RNCNvCsiQXDVBjr1mq_17historical_import15load_gauge_lists_0B3_
FNDA:0,_RNCNvCsiQXDVBjr1mq_17historical_import15load_water_year0B3_
FNDA:0,_RNCNvCsiQXDVBjr1mq_17historical_import16bulk_fopr_import0B3_
FNDA:0,_RNCNvCsiQXDVBjr1mq_17historical_import19print_gauge_summary0B3_
FNDA:0,_RNCNvCsiQXDVBjr1mq_17historical_import19print_gauge_summarys_0B3_
FNDA:0,_RNCNvCsiQXDVBjr1mq_17historical_import21insert_readings_batch0B3_
FNDA:0,_RNCNvCsiQXDVBjr1mq_17historical_import24download_and_import_fopr0B3_
FNDA:0,_RNCNvCsiQXDVBjr1mq_17historical_import31download_and_import_fopr_silent0B3_
FNDA:0,_RNCNvCsiQXDVBjr1mq_17historical_import4main0B3_
FNDA:0,_RNvCsiQXDVBjr1mq_17historical_import10import_pdf
FNDA:0,_RNvCsiQXDVBjr1mq_17historical_import11import_fopr
FNDA:0,_RNvCsiQXDVBjr1mq_17historical_import12import_excel
FNDA:0,_RNvCsiQXDVBjr1mq_17historical_import13print_summary
FNDA:0,_RNvCsiQXDVBjr1mq_17historical_import15load_bulk_years
FNDA:0,_RNvCsiQXDVBjr1mq_17historical_import15load_gauge_list
FNDA:0,_RNvCsiQXDVBjr1mq_17historical_import15load_water_year
FNDA:0,_RNvCsiQXDVBjr1mq_17historical_import16bulk_fopr_import
FNDA:0,_RNvCsiQXDVBjr1mq_17historical_import16month_date_range
FNDA:0,_RNvCsiQXDVBjr1mq_17historical_import19print_gauge_summary
FNDA:0,_RNvCsiQXDVBjr1mq_17historical_import21insert_readings_batch
FNDA:0,_RNvCsiQXDVBjr1mq_17historical_import24download_and_import_fopr
FNDA:0,_RNvCsiQXDVBjr1mq_17historical_import27calculate_cumulative_values
FNDA:0,_RNvCsiQXDVBjr1mq_17historical_import31discover_gauges_from_water_year
FNDA:0,_RNvCsiQXDVBjr1mq_17historical_import31download_and_import_fopr_silent
FNDA:0,_RNvCsiQXDVBjr1mq_17historical_import35calculate_cumulative_values_monthly
FNDA:0,_RNvCsiQXDVBjr1mq_17historical_import4main
FNDA:0,_RNvCs30uj6WIuzt3_17historical_import10import_pdf
FNDA:0,_RNvCs30uj6WIuzt3_17historical_import11import_fopr
FNDA:0,_RNvCs30uj6WIuzt3_17historical_import12import_excel
FNDA:0,_RNvCs30uj6WIuzt3_17historical_import13print_summary
FNDA:0,_RNvCs30uj6WIuzt3_17historical_import15load_bulk_years
FNDA:0,_RNvCs30uj6WIuzt3_17historical_import15load_gauge_list
FNDA:0,_RNvCs30uj6WIuzt3_17historical_import15load_water_year
FNDA:0,_RNvCs30uj6WIuzt3_17historical_import16bulk_fopr_import
FNDA:0,_RNvCs30uj6WIuzt3_17historical_import16month_date_range
FNDA:0,_RNvCs30uj6WIuzt3_17historical_import19print_gauge_summary
FNDA:0,_RNvCs30uj6WIuzt3_17historical_import21insert_readings_batch
FNDA:0,_RNvCs30uj6WIuzt3_17historical_import24download_and_import_fopr
FNDA:0,_RNvCs30uj6WIuzt3_17historical_import27calculate_cumulative_values
FNDA:0,_RNvCs30uj6WIuzt3_17historical_import31discover_gauges_from_water_year
FNDA:0,_RNvCs30uj6WIuzt3_17historical_import31download_and_import_fopr_silent
FNDA:0,_RNvCs30uj6WIuzt3_17historical_import35calculate_cumulative_values_monthly
FNDA:0,_RNvCs30uj6WIuzt3_17historical_import4main
FNDA:0,_RNCNCNCNvCs30uj6WIuzt3_17historical_import11import_fopr000B7_
FNDA:0,_RNCNCNCNvCs30uj6WIuzt3_17historical_import11import_fopr00s0_0B7_
FNDA:0,_RNCNCNCNvCs30uj6WIuzt3_17historical_import11import_fopr00s_0B7_
FNDA:0,_RNCNCNCNvCs30uj6WIuzt3_17historical_import16bulk_fopr_import000B7_
FNDA:0,_RNCNCNvCs30uj6WIuzt3_17historical_import10import_pdf00B5_
FNDA:0,_RNCNCNvCs30uj6WIuzt3_17historical_import10import_pdf0s_0B5_
FNDA:0,_RNCNCNvCs30uj6WIuzt3_17historical_import11import_fopr00B5_
FNDA:0,_RNCNCNvCs30uj6WIuzt3_17historical_import11import_fopr0s0_0B5_
FNDA:0,_RNCNCNvCs30uj6WIuzt3_17historical_import11import_fopr0s1_0B5_
FNDA:0,_RNCNCNvCs30uj6WIuzt3_17historical_import11import_fopr0s_0B5_
FNDA:0,_RNCNCNvCs30uj6WIuzt3_17historical_import12import_excel00B5_
FNDA:0,_RNCNCNvCs30uj6WIuzt3_17historical_import12import_excel0s_0B5_
FNDA:0,_RNCNCNvCs30uj6WIuzt3_17historical_import15load_water_year00B5_
FNDA:0,_RNCNCNvCs30uj6WIuzt3_17historical_import15load_water_year0s_0B5_
FNDA:0,_RNCNCNvCs30uj6WIuzt3_17historical_import16bulk_fopr_import00B5_
FNDA:0,_RNCNCNvCs30uj6WIuzt3_17historical_import19print_gauge_summarys_00B5_
FNDA:0,_RNCNCNvCs30uj6WIuzt3_17historical_import21insert_readings_batch00B5_
FNDA:0,_RNCNCNvCs30uj6WIuzt3_17historical_import4main00B5_
FNDA:0,_RNCNvCs30uj6WIuzt3_17historical_import10import_pdf0B3_
FNDA:0,_RNCNvCs30uj6WIuzt3_17historical_import11import_fopr0B3_
FNDA:0,_RNCNvCs30uj6WIuzt3_17historical_import12import_excel0B3_
FNDA:0,_RNCNvCs30uj6WIuzt3_17historical_import15load_bulk_years0B3_
FNDA:0,_RNCNvCs30uj6WIuzt3_17historical_import15load_gauge_list0B3_
FNDA:0,_RNCNvCs30uj6WIuzt3_17historical_import15load_gauge_lists0_0B3_
FNDA:0,_RNCNvCs30uj6WIuzt3_17historical_import15load_gauge_lists_0B3_
FNDA:0,_RNCNvCs30uj6WIuzt3_17historical_import15load_water_year0B3_
FNDA:0,_RNCNvCs30uj6WIuzt3_17historical_import16bulk_fopr_import0B3_
FNDA:0,_RNCNvCs30uj6WIuzt3_17historical_import19print_gauge_summary0B3_
FNDA:0,_RNCNvCs30uj6WIuzt3_17historical_import19print_gauge_summarys_0B3_
FNDA:0,_RNCNvCs30uj6WIuzt3_17historical_import21insert_readings_batch0B3_
FNDA:0,_RNCNvCs30uj6WIuzt3_17historical_import24download_and_import_fopr0B3_
FNDA:0,_RNCNvCs30uj6WIuzt3_17historical_import31download_and_import_fopr_silent0B3_
FNDA:0,_RNCNvCs30uj6WIuzt3_17historical_import4main0B3_
FNF:50
FNH:0
DA:93,0
DA:94,0
DA:95,0
DA:96,0
DA:98,0
DA:99,0
DA:100,0
DA:101,0
DA:102,0
DA:103,0
DA:104,0
DA:106,0
DA:109,0
DA:111,0
DA:114,0
DA:115,0
DA:117,0
DA:119,0
DA:120,0
DA:121,0
DA:122,0
DA:124,0
DA:126,0
DA:127,0
DA:128,0
DA:129,0
DA:130,0
DA:131,0
DA:132,0
DA:136,0
DA:137,0
DA:140,0
DA:142,0
DA:145,0
DA:146,0
DA:147,0
DA:148,0
DA:150,0
DA:152,0
DA:155,0
DA:156,0
DA:157,0
DA:158,0
DA:159,0
DA:161,0
DA:162,0
DA:163,0
DA:164,0
DA:165,0
DA:166,0
DA:168,0
DA:169,0
DA:170,0
DA:171,0
DA:172,0
DA:173,0
DA:174,0
DA:175,0
DA:176,0
DA:177,0
DA:178,0
DA:179,0
DA:180,0
DA:181,0
DA:183,0
DA:184,0
DA:185,0
DA:186,0
DA:187,0
DA:188,0
DA:190,0
DA:191,0
DA:192,0
DA:193,0
DA:194,0
DA:196,0
DA:197,0
DA:198,0
DA:199,0
DA:200,0
DA:201,0
DA:203,0
DA:204,0
DA:205,0
DA:206,0
DA:207,0
DA:208,0
DA:210,0
DA:211,0
DA:212,0
DA:213,0
DA:214,0
DA:215,0
DA:216,0
DA:217,0
DA:218,0
DA:219,0
DA:220,0
DA:223,0
DA:224,0
DA:225,0
DA:226,0
DA:227,0
DA:231,0
DA:232,0
DA:233,0
DA:235,0
DA:236,0
DA:237,0
DA:238,0
DA:239,0
DA:240,0
DA:241,0
DA:243,0
DA:244,0
DA:247,0
DA:248,0
DA:249,0
DA:250,0
DA:253,0
DA:254,0
DA:255,0
DA:256,0
DA:257,0
DA:258,0
DA:260,0
DA:262,0
DA:263,0
DA:264,0
DA:265,0
DA:266,0
DA:267,0
DA:268,0
DA:271,0
DA:272,0
DA:273,0
DA:274,0
DA:275,0
DA:276,0
DA:277,0
DA:279,0
DA:281,0
DA:282,0
DA:283,0
DA:284,0
DA:285,0
DA:287,0
DA:288,0
DA:289,0
DA:292,0
DA:293,0
DA:294,0
DA:295,0
DA:298,0
DA:299,0
DA:300,0
DA:301,0
DA:302,0
DA:303,0
DA:304,0
DA:305,0
DA:308,0
DA:309,0
DA:310,0
DA:313,0
DA:315,0
DA:317,0
DA:318,0
DA:319,0
DA:321,0
DA:323,0
DA:336,0
DA:337,0
DA:339,0
DA:340,0
DA:341,0
DA:342,0
DA:343,0
DA:344,0
DA:345,0
DA:346,0
DA:347,0
DA:349,0
DA:352,0
DA:353,0
DA:354,0
DA:357,0
DA:360,0
DA:361,0
DA:362,0
DA:363,0
DA:364,0
DA:368,0
DA:369,0
DA:370,0
DA:371,0
DA:372,0
DA:373,0
DA:376,0
DA:378,0
DA:379,0
DA:380,0
DA:381,0
DA:382,0
DA:383,0
DA:386,0
DA:387,0
DA:388,0
DA:389,0
DA:391,0
DA:394,0
DA:397,0
DA:398,0
DA:399,0
DA:400,0
DA:401,0
DA:402,0
DA:403,0
DA:404,0
DA:405,0
DA:406,0
DA:407,0
DA:408,0
DA:409,0
DA:410,0
DA:411,0
DA:412,0
DA:414,0
DA:415,0
DA:416,0
DA:417,0
DA:419,0
DA:421,0
DA:422,0
DA:424,0
DA:425,0
DA:426,0
DA:427,0
DA:428,0
DA:429,0
DA:430,0
DA:431,0
DA:433,0
DA:434,0
DA:437,0
DA:438,0
DA:439,0
DA:440,0
DA:443,0
DA:444,0
DA:445,0
DA:446,0
DA:447,0
DA:449,0
DA:450,0
DA:451,0
DA:452,0
DA:453,0
DA:454,0
DA:455,0
DA:458,0
DA:459,0
DA:460,0
DA:461,0
DA:462,0
DA:463,0
DA:464,0
DA:466,0
DA:468,0
DA:469,0
DA:470,0
DA:471,0
DA:472,0
DA:474,0
DA:475,0
DA:476,0
DA:481,0
DA:482,0
DA:483,0
DA:484,0
DA:487,0
DA:488,0
DA:489,0
DA:490,0
DA:491,0
DA:492,0
DA:493,0
DA:494,0
DA:497,0
DA:498,0
DA:499,0
DA:502,0
DA:504,0
DA:506,0
DA:507,0
DA:508,0
DA:510,0
DA:512,0
DA:525,0
DA:526,0
DA:528,0
DA:529,0
DA:530,0
DA:531,0
DA:532,0
DA:533,0
DA:534,0
DA:535,0
DA:536,0
DA:538,0
DA:541,0
DA:542,0
DA:543,0
DA:546,0
DA:549,0
DA:550,0
DA:551,0
DA:552,0
DA:553,0
DA:557,0
DA:558,0
DA:559,0
DA:560,0
DA:561,0
DA:562,0
DA:565,0
DA:567,0
DA:568,0
DA:569,0
DA:570,0
DA:571,0
DA:572,0
DA:575,0
DA:576,0
DA:577,0
DA:578,0
DA:580,0
DA:583,0
DA:586,0
DA:587,0
DA:588,0
DA:589,0
DA:590,0
DA:591,0
DA:592,0
DA:593,0
DA:594,0
DA:595,0
DA:596,0
DA:597,0
DA:598,0
DA:599,0
DA:600,0
DA:601,0
DA:603,0
DA:604,0
DA:605,0
DA:606,0
DA:608,0
DA:610,0
DA:611,0
DA:613,0
DA:614,0
DA:615,0
DA:616,0
DA:617,0
DA:618,0
DA:619,0
DA:621,0
DA:622,0
DA:625,0
DA:626,0
DA:627,0
DA:628,0
DA:631,0
DA:632,0
DA:633,0
DA:634,0
DA:635,0
DA:637,0
DA:638,0
DA:639,0
DA:640,0
DA:641,0
DA:642,0
DA:643,0
DA:646,0
DA:647,0
DA:648,0
DA:650,0
DA:655,0
DA:656,0
DA:658,0
DA:659,0
DA:660,0
DA:662,0
DA:663,0
DA:665,0
DA:666,0
DA:667,0
DA:668,0
DA:669,0
DA:671,0
DA:672,0
DA:677,0
DA:679,0
DA:680,0
DA:682,0
DA:685,0
DA:686,0
DA:689,0
DA:690,0
DA:692,0
DA:693,0
DA:694,0
DA:695,0
DA:696,0
DA:698,0
DA:699,0
DA:702,0
DA:703,0
DA:704,0
DA:705,0
DA:706,0
DA:708,0
DA:709,0
DA:710,0
DA:711,0
DA:712,0
DA:713,0
DA:716,0
DA:717,0
DA:718,0
DA:719,0
DA:722,0
DA:723,0
DA:724,0
DA:725,0
DA:728,0
DA:729,0
DA:731,0
DA:732,0
DA:733,0
DA:734,0
DA:735,0
DA:736,0
DA:739,0
DA:740,0
DA:741,0
DA:745,0
DA:746,0
DA:747,0
DA:758,0
DA:759,0
DA:761,0
DA:762,0
DA:763,0
DA:764,0
DA:765,0
DA:766,0
DA:770,0
DA:771,0
DA:774,0
DA:775,0
DA:778,0
DA:779,0
DA:780,0
DA:781,0
DA:782,0
DA:783,0
DA:784,0
DA:785,0
DA:787,0
DA:788,0
DA:790,0
DA:791,0
DA:792,0
DA:793,0
DA:794,0
DA:797,0
DA:798,0
DA:800,0
DA:803,0
DA:804,0
DA:805,0
DA:806,0
DA:807,0
DA:808,0
DA:809,0
DA:810,0
DA:811,0
DA:812,0
DA:813,0
DA:814,0
DA:815,0
DA:816,0
DA:817,0
DA:818,0
DA:820,0
DA:821,0
DA:822,0
DA:823,0
DA:825,0
DA:827,0
DA:828,0
DA:830,0
DA:831,0
DA:832,0
DA:833,0
DA:834,0
DA:835,0
DA:836,0
DA:837,0
DA:839,0
DA:842,0
DA:843,0
DA:844,0
DA:845,0
DA:847,0
DA:848,0
DA:849,0
DA:850,0
DA:851,0
DA:852,0
DA:853,0
DA:856,0
DA:857,0
DA:859,0
DA:860,0
DA:861,0
DA:862,0
DA:863,0
DA:865,0
DA:867,0
DA:868,0
DA:870,0
DA:871,0
DA:872,0
DA:874,0
DA:875,0
DA:876,0
DA:877,0
DA:881,0
DA:884,0
DA:885,0
DA:886,0
DA:889,0
DA:892,0
DA:893,0
DA:894,0
DA:895,0
DA:896,0
DA:897,0
DA:899,0
DA:900,0
DA:901,0
DA:902,0
DA:905,0
DA:906,0
DA:909,0
DA:910,0
DA:911,0
DA:917,0
DA:919,0
DA:920,0
DA:922,0
DA:923,0
DA:924,0
DA:925,0
DA:928,0
DA:929,0
DA:931,0
DA:932,0
DA:933,0
DA:934,0
DA:935,0
DA:936,0
DA:937,0
DA:938,0
DA:939,0
DA:940,0
DA:941,0
DA:942,0
DA:946,0
DA:947,0
DA:949,0
DA:950,0
DA:951,0
DA:954,0
DA:955,0
DA:957,0
DA:958,0
DA:959,0
DA:960,0
DA:961,0
DA:962,0
DA:963,0
DA:965,0
DA:966,0
DA:967,0
DA:970,0
DA:971,0
DA:972,0
DA:973,0
DA:974,0
DA:975,0
DA:976,0
DA:977,0
DA:978,0
DA:979,0
DA:982,0
DA:983,0
DA:984,0
DA:985,0
DA:987,0
DA:988,0
DA:989,0
DA:992,0
DA:995,0
DA:996,0
DA:997,0
DA:998,0
DA:1000,0
DA:1001,0
DA:1002,0
DA:1003,0
DA:1004,0
DA:1005,0
DA:1006,0
DA:1008,0
DA:1010,0
DA:1011,0
DA:1012,0
DA:1013,0
DA:1014,0
DA:1015,0
DA:1016,0
DA:1019,0
DA:1022,0
DA:1023,0
DA:1024,0
DA:1027,0
DA:1028,0
DA:1029,0
DA:1030,0
DA:1031,0
DA:1032,0
DA:1038,0
DA:1039,0
DA:1040,0
DA:1041,0
DA:1042,0
DA:1043,0
DA:1044,0
DA:1045,0
DA:1046,0
DA:1047,0
DA:1048,0
DA:1049,0
DA:1050,0
DA:1051,0
DA:1054,0
DA:1055,0
DA:1056,0
DA:1057,0
DA:1058,0
DA:1059,0
DA:1060,0
DA:1061,0
DA:1062,0
DA:1063,0
DA:1064,0
DA:1065,0
DA:1066,0
DA:1067,0
DA:1068,0
DA:1069,0
DA:1070,0
DA:1071,0
DA:1072,0
DA:1074,0
DA:1077,0
DA:1078,0
DA:1080,0
DA:1083,0
DA:1086,0
DA:1087,0
DA:1088,0
DA:1089,0
DA:1090,0
DA:1091,0
DA:1092,0
DA:1093,0
DA:1094,0
DA:1095,0
DA:1096,0
DA:1098,0
DA:1100,0
DA:1101,0
DA:1102,0
DA:1103,0
DA:1104,0
DA:1105,0
DA:1107,0
DA:1108,0
DA:1109,0
DA:1111,0
DA:1112,0
DA:1115,0
DA:1116,0
DA:1117,0
DA:1118,0
DA:1119,0
DA:1120,0
DA:1122,0
DA:1123,0
DA:1126,0
DA:1129,0
DA:1130,0
DA:1133,0
DA:1136,0
DA:1137,0
DA:1138,0
DA:1140,0
DA:1141,0
DA:1145,0
DA:1146,0
DA:1147,0
DA:1148,0
DA:1149,0
DA:1151,0
DA:1152,0
DA:1153,0
DA:1154,0
DA:1155,0
DA:1156,0
DA:1157,0
DA:1159,0
DA:1162,0
DA:1164,0
DA:1167,0
DA:1168,0
DA:1169,0
DA:1170,0
DA:1172,0
DA:1175,0
DA:1177,0
DA:1178,0
DA:1179,0
DA:1180,0
DA:1181,0
DA:1182,0
DA:1183,0
DA:1184,0
DA:1185,0
DA:1186,0
DA:1187,0
DA:1191,0
DA:1192,0
DA:1196,0
DA:1197,0
DA:1198,0
DA:1199,0
DA:1200,0
DA:1201,0
DA:1202,0
DA:1203,0
DA:1210,0
DA:1211,0
DA:1213,0
DA:1216,0
DA:1217,0
DA:1218,0
DA:1219,0
DA:1221,0
DA:1224,0
DA:1225,0
DA:1226,0
DA:1227,0
DA:1228,0
DA:1229,0
DA:1230,0
DA:1231,0
DA:1232,0
DA:1233,0
DA:1234,0
DA:1235,0
DA:1236,0
DA:1238,0
DA:1239,0
DA:1240,0
DA:1241,0
DA:1242,0
DA:1243,0
DA:1244,0
DA:1247,0
DA:1249,0
DA:1251,0
DA:1253,0
DA:1254,0
DA:1255,0
DA:1256,0
DA:1257,0
DA:1258,0
DA:1260,0
DA:1262,0
DA:1263,0
DA:1264,0
DA:1265,0
DA:1269,0
DA:1270,0
DA:1271,0
DA:1272,0
DA:1273,0
DA:1274,0
DA:1275,0
DA:1277,0
DA:1280,0
DA:1281,0
DA:1282,0
DA:1283,0
DA:1284,0
DA:1286,0
DA:1287,0
DA:1288,0
DA:1289,0
DA:1291,0
DA:1292,0
DA:1293,0
DA:1294,0
DA:1295,0
DA:1296,0
DA:1298,0
DA:1299,0
DA:1300,0
DA:1303,0
DA:1304,0
DA:1305,0
DA:1306,0
DA:1308,0
DA:1309,0
DA:1310,0
DA:1311,0
DA:1312,0
DA:1313,0
DA:1314,0
DA:1317,0
DA:1319,0
DA:1320,0
DA:1321,0
DA:1322,0
DA:1323,0
DA:1324,0
DA:1325,0
DA:1326,0
DA:1327,0
DA:1328,0
DA:1329,0
DA:1330,0
DA:1331,0
DA:1335,0
DA:1336,0
DA:1339,0
DA:1340,0
DA:1341,0
DA:1342,0
DA:1343,0
DA:1344,0
DA:1347,0
DA:1348,0
DA:1350,0
DA:1351,0
DA:1353,0
DA:1354,0
DA:1355,0
DA:1356,0
DA:1357,0
DA:1358,0
DA:1359,0
DA:1362,0
DA:1363,0
DA:1366,0
DA:1367,0
DA:1369,0
DA:1370,0
DA:1371,0
DA:1372,0
DA:1373,0
DA:1374,0
DA:1377,0
DA:1378,0
DA:1379,0
DA:1381,0
DA:1382,0
DA:1383,0
DA:1386,0
DA:1387,0
DA:1389,0
DA:1390,0
DA:1391,0
DA:1393,0
DA:1396,0
DA:1399,0
DA:1400,0
DA:1401,0
DA:1402,0
DA:1404,0
DA:1405,0
DA:1406,0
DA:1407,0
DA:1408,0
DA:1409,0
DA:1410,0
DA:1413,0
DA:1415,0
DA:1416,0
DA:1417,0
DA:1418,0
DA:1419,0
DA:1420,0
DA:1421,0
DA:1422,0
DA:1423,0
DA:1424,0
DA:1425,0
DA:1426,0
DA:1427,0
DA:1431,0
DA:1432,0
DA:1435,0
DA:1436,0
DA:1437,0
DA:1438,0
DA:1439,0
DA:1440,0
DA:1441,0
DA:1442,0
DA:1443,0
DA:1444,0
DA:1445,0
DA:1447,0
DA:1449,0
DA:1450,0
DA:1451,0
DA:1452,0
DA:1454,0
DA:1455,0
DA:1456,0
DA:1457,0
DA:1458,0
DA:1459,0
DA:1460,0
DA:1462,0
DA:1463,0
DA:1465,0
DA:1466,0
DA:1467,0
DA:1468,0
DA:1470,0
DA:1473,0
DA:1475,0
DA:1477,0
DA:1479,0
DA:1480,0
DA:1481,0
DA:1482,0
DA:1484,0
DA:1485,0
DA:1486,0
DA:1487,0
DA:1488,0
DA:1489,0
DA:1494,0
DA:1495,0
DA:1496,0
DA:1497,0
DA:1498,0
DA:1499,0
DA:1500,0
DA:1501,0
DA:1502,0
DA:1504,0
DA:1506,0
DA:1507,0
DA:1511,0
DA:1512,0
DA:1513,0
DA:1514,0
DA:1515,0
DA:1516,0
DA:1517,0
DA:1518,0
DA:1519,0
DA:1520,0
DA:1521,0
DA:1522,0
DA:1523,0
DA:1524,0
DA:1525,0
DA:1526,0
DA:1528,0
DA:1529,0
DA:1530,0
DA:1531,0
DA:1532,0
DA:1533,0
DA:1534,0
DA:1537,0
DA:1538,0
DA:1539,0
DA:1541,0
DA:1542,0
DA:1543,0
DA:1544,0
DA:1546,0
DA:1548,0
DA:1561,0
DA:1562,0
DA:1564,0
DA:1565,0
DA:1566,0
DA:1567,0
DA:1568,0
DA:1569,0
DA:1570,0
DA:1571,0
DA:1573,0
DA:1576,0
DA:1577,0
DA:1578,0
DA:1581,0
DA:1582,0
DA:1587,0
DA:1588,0
DA:1589,0
DA:1590,0
DA:1591,0
DA:1595,0
DA:1596,0
DA:1597,0
DA:1598,0
DA:1599,0
DA:1600,0
DA:1603,0
DA:1605,0
DA:1606,0
DA:1607,0
DA:1608,0
DA:1609,0
DA:1610,0
DA:1613,0
DA:1614,0
DA:1615,0
DA:1616,0
DA:1618,0
DA:1621,0
DA:1622,0
DA:1623,0
DA:1624,0
DA:1625,0
DA:1626,0
DA:1627,0
DA:1628,0
DA:1631,0
DA:1633,0
DA:1635,0
DA:1636,0
DA:1637,0
DA:1638,0
DA:1639,0
DA:1640,0
DA:1641,0
DA:1642,0
DA:1644,0
DA:1645,0
DA:1646,0
DA:1648,0
DA:1649,0
DA:1650,0
DA:1651,0
DA:1652,0
DA:1654,0
DA:1655,0
DA:1656,0
DA:1657,0
DA:1658,0
DA:1661,0
DA:1662,0
DA:1665,0
DA:1666,0
DA:1667,0
DA:1668,0
DA:1669,0
DA:1670,0
DA:1671,0
DA:1672,0
DA:1673,0
DA:1674,0
DA:1675,0
DA:1676,0
DA:1677,0
DA:1678,0
DA:1679,0
DA:1680,0
DA:1681,0
DA:1684,0
DA:1685,0
DA:1687,0
DA:1689,0
DA:1690,0
DA:1692,0
DA:1693,0
DA:1696,0
DA:1700,0
DA:1701,0
DA:1702,0
DA:1703,0
DA:1707,0
DA:1708,0
DA:1709,0
DA:1710,0
DA:1711,0
DA:1712,0
DA:1713,0
DA:1714,0
DA:1715,0
DA:1716,0
DA:1717,0
DA:1718,0
DA:1719,0
DA:1720,0
DA:1721,0
DA:1722,0
DA:1723,0
DA:1724,0
DA:1725,0
DA:1726,0
DA:1727,0
DA:1728,0
DA:1729,0
DA:1730,0
DA:1731,0
DA:1732,0
DA:1733,0
DA:1734,0
DA:1735,0
DA:1736,0
DA:1738,0
DA:1739,0
DA:1740,0
DA:1741,0
DA:1743,0
DA:1744,0
DA:1749,0
DA:1750,0
DA:1751,0
DA:1752,0
DA:1753,0
DA:1755,0
DA:1756,0
DA:1758,0
DA:1761,0
DA:1762,0
DA:1763,0
DA:1764,0
DA:1766,0
DA:1767,0
DA:1769,0
DA:1770,0
BRF:0
BRH:0
LF:1202
LH:0
end_of_record
SF:/Users/terry/RustroverProjects/rain-tracker-service/src/bin/list_gauges.rs
FN:8,_RNvCseuY4Ug2UCH8_11list_gauges4main
FN:8,_RNvCsjbIdVaMiKq_11list_gauges4main
FNDA:0,_RNvCseuY4Ug2UCH8_11list_gauges4main
FNDA:0,_RNvCsjbIdVaMiKq_11list_gauges4main
FNF:1
FNH:0
DA:8,0
DA:9,0
DA:10,0
DA:11,0
DA:13,0
DA:16,0
DA:18,0
DA:21,0
DA:23,0
DA:24,0
DA:25,0
DA:26,0
DA:29,0
DA:30,0
DA:32,0
DA:33,0
DA:34,0
DA:35,0
DA:36,0
DA:37,0
DA:38,0
DA:39,0
DA:40,0
DA:41,0
DA:42,0
DA:43,0
DA:47,0
DA:48,0
DA:50,0
DA:51,0
DA:52,0
DA:53,0
DA:54,0
DA:56,0
DA:57,0
DA:58,0
DA:59,0
DA:60,0
DA:61,0
DA:62,0
DA:65,0
DA:66,0
DA:68,0
DA:69,0
BRF:0
BRH:0
LF:44
LH:0
end_of_record
SF:/Users/terry/RustroverProjects/rain-tracker-service/src/db/fopr_import_job_repository.rs
FN:83,_RNCNCNCNvMNtNtCs7iCqo0KpDVZ_20rain_tracker_service2db26fopr_import_job_repositoryNtB8_23FoprImportJobRepository10create_job000Bc_
FN:304,_RNCNCNCNvMNtNtCs7iCqo0KpDVZ_20rain_tracker_service2db26fopr_import_job_repositoryNtB8_23FoprImportJobRepository13create_job_tx000Bc_
FN:79,_RNCNvMNtNtCs7iCqo0KpDVZ_20rain_tracker_service2db26fopr_import_job_repositoryNtB4_23FoprImportJobRepository10create_job0B8_
FN:476,_RNCNvMNtNtCs7iCqo0KpDVZ_20rain_tracker_service2db26fopr_import_job_repositoryNtB4_23FoprImportJobRepository10get_job_tx0B8_
FN:222,_RNCNvMNtNtCs7iCqo0KpDVZ_20rain_tracker_service2db26fopr_import_job_repositoryNtB4_23FoprImportJobRepository10job_exists0B8_
FN:189,_RNCNvMNtNtCs7iCqo0KpDVZ_20rain_tracker_service2db26fopr_import_job_repositoryNtB4_23FoprImportJobRepository11mark_failed0B8_
FN:300,_RNCNvMNtNtCs7iCqo0KpDVZ_20rain_tracker_service2db26fopr_import_job_repositoryNtB4_23FoprImportJobRepository13create_job_tx0B8_
FN:450,_RNCNvMNtNtCs7iCqo0KpDVZ_20rain_tracker_service2db26fopr_import_job_repositoryNtB4_23FoprImportJobRepository13job_exists_tx0B8_
FN:114,_RNCNvMNtNtCs7iCqo0KpDVZ_20rain_tracker_service2db26fopr_import_job_repositoryNtB4_23FoprImportJobRepository14claim_next_job0B8_
FN:153,_RNCNvMNtNtCs7iCqo0KpDVZ_20rain_tracker_service2db26fopr_import_job_repositoryNtB4_23FoprImportJobRepository14mark_completed0B8_
FN:413,_RNCNvMNtNtCs7iCqo0KpDVZ_20rain_tracker_service2db26fopr_import_job_repositoryNtB4_23FoprImportJobRepository14mark_failed_tx0B8_
FN:266,_RNCNvMNtNtCs7iCqo0KpDVZ_20rain_tracker_service2db26fopr_import_job_repositoryNtB4_23FoprImportJobRepository16get_pending_jobs0B8_
FN:335,_RNCNvMNtNtCs7iCqo0KpDVZ_20rain_tracker_service2db26fopr_import_job_repositoryNtB4_23FoprImportJobRepository17claim_next_job_tx0B8_
FN:379,_RNCNvMNtNtCs7iCqo0KpDVZ_20rain_tracker_service2db26fopr_import_job_repositoryNtB4_23FoprImportJobRepository17mark_completed_tx0B8_
FN:501,_RNCNvMNtNtCs7iCqo0KpDVZ_20rain_tracker_service2db26fopr_import_job_repositoryNtB4_23FoprImportJobRepository19get_pending_jobs_tx0B8_
FN:244,_RNCNvMNtNtCs7iCqo0KpDVZ_20rain_tracker_service2db26fopr_import_job_repositoryNtB4_23FoprImportJobRepository7get_job0B8_
FN:73,_RNvMNtNtCs7iCqo0KpDVZ_20rain_tracker_service2db26fopr_import_job_repositoryNtB2_23FoprImportJobRepository10create_job
FN:472,_RNvMNtNtCs7iCqo0KpDVZ_20rain_tracker_service2db26fopr_import_job_repositoryNtB2_23FoprImportJobRepository10get_job_tx
FN:222,_RNvMNtNtCs7iCqo0KpDVZ_20rain_tracker_service2db26fopr_import_job_repositoryNtB2_23FoprImportJobRepository10job_exists
FN:182,_RNvMNtNtCs7iCqo0KpDVZ_20rain_tracker_service2db26fopr_import_job_repositoryNtB2_23FoprImportJobRepository11mark_failed
FN:293,_RNvMNtNtCs7iCqo0KpDVZ_20rain_tracker_service2db26fopr_import_job_repositoryNtB2_23FoprImportJobRepository13create_job_tx
FN:446,_RNvMNtNtCs7iCqo0KpDVZ_20rain_tracker_service2db26fopr_import_job_repositoryNtB2_23FoprImportJobRepository13job_exists_tx
FN:114,_RNvMNtNtCs7iCqo0KpDVZ_20rain_tracker_service2db26fopr_import_job_repositoryNtB2_23FoprImportJobRepository14claim_next_job
FN:153,_RNvMNtNtCs7iCqo0KpDVZ_20rain_tracker_service2db26fopr_import_job_repositoryNtB2_23FoprImportJobRepository14mark_completed
FN:405,_RNvMNtNtCs7iCqo0KpDVZ_20rain_tracker_service2db26fopr_import_job_repositoryNtB2_23FoprImportJobRepository14mark_failed_tx
FN:266,_RNvMNtNtCs7iCqo0KpDVZ_20rain_tracker_service2db26fopr_import_job_repositoryNtB2_23FoprImportJobRepository16get_pending_jobs
FN:332,_RNvMNtNtCs7iCqo0KpDVZ_20rain_tracker_service2db26fopr_import_job_repositoryNtB2_23FoprImportJobRepository17claim_next_job_tx
FN:374,_RNvMNtNtCs7iCqo0KpDVZ_20rain_tracker_service2db26fopr_import_job_repositoryNtB2_23FoprImportJobRepository17mark_completed_tx
FN:498,_RNvMNtNtCs7iCqo0KpDVZ_20rain_tracker_service2db26fopr_import_job_repositoryNtB2_23FoprImportJobRepository19get_pending_jobs_tx
FN:67,_RNvMNtNtCs7iCqo0KpDVZ_20rain_tracker_service2db26fopr_import_job_repositoryNtB2_23FoprImportJobRepository3new
FN:244,_RNvMNtNtCs7iCqo0KpDVZ_20rain_tracker_service2db26fopr_import_job_repositoryNtB2_23FoprImportJobRepository7get_job
FN:83,_RNCNCNCNvMNtNtCs7iCqo0KpDVZ_20rain_tracker_service2db26fopr_import_job_repositoryNtB8_23FoprImportJobRepository10create_job000Cs3PAmBzODhhi_19error_handling_test
FN:79,_RNCNvMNtNtCs7iCqo0KpDVZ_20rain_tracker_service2db26fopr_import_job_repositoryNtB4_23FoprImportJobRepository10create_job0Cs3PAmBzODhhi_19error_handling_test
FN:222,_RNCNvMNtNtCs7iCqo0KpDVZ_20rain_tracker_service2db26fopr_import_job_repositoryNtB4_23FoprImportJobRepository10job_exists0Cs3PAmBzODhhi_19error_handling_test
FN:83,_RNCNCNCNvMNtNtCs7iCqo0KpDVZ_20rain_tracker_service2db26fopr_import_job_repositoryNtB8_23FoprImportJobRepository10create_job000CseH0guzo6yrj_31fopr_import_job_repository_test
FN:304,_RNCNCNCNvMNtNtCs7iCqo0KpDVZ_20rain_tracker_service2db26fopr_import_job_repositoryNtB8_23FoprImportJobRepository13create_job_tx000CseH0guzo6yrj_31fopr_import_job_repository_test
FN:79,_RNCNvMNtNtCs7iCqo0KpDVZ_20rain_tracker_service2db26fopr_import_job_repositoryNtB4_23FoprImportJobRepository10create_job0CseH0guzo6yrj_31fopr_import_job_repository_test
FN:476,_RNCNvMNtNtCs7iCqo0KpDVZ_20rain_tracker_service2db26fopr_import_job_repositoryNtB4_23FoprImportJobRepository10get_job_tx0CseH0guzo6yrj_31fopr_import_job_repository_test
FN:300,_RNCNvMNtNtCs7iCqo0KpDVZ_20rain_tracker_service2db26fopr_import_job_repositoryNtB4_23FoprImportJobRepository13create_job_tx0CseH0guzo6yrj_31fopr_import_job_repository_test
FN:450,_RNCNvMNtNtCs7iCqo0KpDVZ_20rain_tracker_service2db26fopr_import_job_repositoryNtB4_23FoprImportJobRepository13job_exists_tx0CseH0guzo6yrj_31fopr_import_job_repository_test
FN:114,_RNCNvMNtNtCs7iCqo0KpDVZ_20rain_tracker_service2db26fopr_import_job_repositoryNtB4_23FoprImportJobRepository14claim_next_job0CseH0guzo6yrj_31fopr_import_job_repository_test
FN:413,_RNCNvMNtNtCs7iCqo0KpDVZ_20rain_tracker_service2db26fopr_import_job_repositoryNtB4_23FoprImportJobRepository14mark_failed_tx0CseH0guzo6yrj_31fopr_import_job_repository_test
FN:266,_RNCNvMNtNtCs7iCqo0KpDVZ_20rain_tracker_service2db26fopr_import_job_repositoryNtB4_23FoprImportJobRepository16get_pending_jobs0CseH0guzo6yrj_31fopr_import_job_repository_test
FN:335,_RNCNvMNtNtCs7iCqo0KpDVZ_20rain_tracker_service2db26fopr_import_job_repositoryNtB4_23FoprImportJobRepository17claim_next_job_tx0CseH0guzo6yrj_31fopr_import_job_repository_test
FN:379,_RNCNvMNtNtCs7iCqo0KpDVZ_20rain_tracker_service2db26fopr_import_job_repositoryNtB4_23FoprImportJobRepository17mark_completed_tx0CseH0guzo6yrj_31fopr_import_job_repository_test
FN:501,_RNCNvMNtNtCs7iCqo0KpDVZ_20rain_tracker_service2db26fopr_import_job_repositoryNtB4_23FoprImportJobRepository19get_pending_jobs_tx0CseH0guzo6yrj_31fopr_import_job_repository_test
FN:244,_RNCNvMNtNtCs7iCqo0KpDVZ_20rain_tracker_service2db26fopr_import_job_repositoryNtB4_23FoprImportJobRepository7get_job0CseH0guzo6yrj_31fopr_import_job_repository_test
FN:83,_RNCNCNCNvMNtNtCs7iCqo0KpDVZ_20rain_tracker_service2db26fopr_import_job_repositoryNtB8_23FoprImportJobRepository10create_job000CskhdQylLvBLq_24fopr_import_service_test
FN:79,_RNCNvMNtNtCs7iCqo0KpDVZ_20rain_tracker_service2db26fopr_import_job_repositoryNtB4_23FoprImportJobRepository10create_job0CskhdQylLvBLq_24fopr_import_service_test
FN:222,_RNCNvMNtNtCs7iCqo0KpDVZ_20rain_tracker_service2db26fopr_import_job_repositoryNtB4_23FoprImportJobRepository10job_exists0CskhdQylLvBLq_24fopr_import_service_test
FN:83,_RNCNCNCNvMNtNtCs7iCqo0KpDVZ_20rain_tracker_service2db26fopr_import_job_repositoryNtB8_23FoprImportJobRepository10create_job000Cs1juIzkGC2Eo_23fopr_import_worker_test
FN:79,_RNCNvMNtNtCs7iCqo0KpDVZ_20rain_tracker_service2db26fopr_import_job_repositoryNtB4_23FoprImportJobRepository10create_job0Cs1juIzkGC2Eo_23fopr_import_worker_test
FN:189,_RNCNvMNtNtCs7iCqo0KpDVZ_20rain_tracker_service2db26fopr_import_job_repositoryNtB4_23FoprImportJobRepository11mark_failed0Cs1juIzkGC2Eo_23fopr_import_worker_test
FN:114,_RNCNvMNtNtCs7iCqo0KpDVZ_20rain_tracker_service2db26fopr_import_job_repositoryNtB4_23FoprImportJobRepository14claim_next_job0Cs1juIzkGC2Eo_23fopr_import_worker_test
FN:153,_RNCNvMNtNtCs7iCqo0KpDVZ_20rain_tracker_service2db26fopr_import_job_repositoryNtB4_23FoprImportJobRepository14mark_completed0Cs1juIzkGC2Eo_23fopr_import_worker_test
FN:244,_RNCNvMNtNtCs7iCqo0KpDVZ_20rain_tracker_service2db26fopr_import_job_repositoryNtB4_23FoprImportJobRepository7get_job0Cs1juIzkGC2Eo_23fopr_import_worker_test
FN:83,_RNCNCNCNvMNtNtCs7iCqo0KpDVZ_20rain_tracker_service2db26fopr_import_job_repositoryNtB8_23FoprImportJobRepository10create_job000Csdpfhlhhwi2Y_20rain_tracker_service
FN:79,_RNCNvMNtNtCs7iCqo0KpDVZ_20rain_tracker_service2db26fopr_import_job_repositoryNtB4_23FoprImportJobRepository10create_job0Csdpfhlhhwi2Y_20rain_tracker_service
FN:222,_RNCNvMNtNtCs7iCqo0KpDVZ_20rain_tracker_service2db26fopr_import_job_repositoryNtB4_23FoprImportJobRepository10job_exists0Csdpfhlhhwi2Y_20rain_tracker_service
FN:189,_RNCNvMNtNtCs7iCqo0KpDVZ_20rain_tracker_service2db26fopr_import_job_repositoryNtB4_23FoprImportJobRepository11mark_failed0Csdpfhlhhwi2Y_20rain_tracker_service
FN:114,_RNCNvMNtNtCs7iCqo0KpDVZ_20rain_tracker_service2db26fopr_import_job_repositoryNtB4_23FoprImportJobRepository14claim_next_job0Csdpfhlhhwi2Y_20rain_tracker_service
FN:153,_RNCNvMNtNtCs7iCqo0KpDVZ_20rain_tracker_service2db26fopr_import_job_repositoryNtB4_23FoprImportJobRepository14mark_completed0Csdpfhlhhwi2Y_20rain_tracker_service
FN:83,_RNCNCNCNvMNtNtCs4I6j3VtXKYU_20rain_tracker_service2db26fopr_import_job_repositoryNtB8_23FoprImportJobRepository10create_job000Bc_
FN:304,_RNCNCNCNvMNtNtCs4I6j3VtXKYU_20rain_tracker_service2db26fopr_import_job_repositoryNtB8_23FoprImportJobRepository13create_job_tx000Bc_
FN:79,_RNCNvMNtNtCs4I6j3VtXKYU_20rain_tracker_service2db26fopr_import_job_repositoryNtB4_23FoprImportJobRepository10create_job0B8_
FN:476,_RNCNvMNtNtCs4I6j3VtXKYU_20rain_tracker_service2db26fopr_import_job_repositoryNtB4_23FoprImportJobRepository10get_job_tx0B8_
FN:222,_RNCNvMNtNtCs4I6j3VtXKYU_20rain_tracker_service2db26fopr_import_job_repositoryNtB4_23FoprImportJobRepository10job_exists0B8_
FN:189,_RNCNvMNtNtCs4I6j3VtXKYU_20rain_tracker_service2db26fopr_import_job_repositoryNtB4_23FoprImportJobRepository11mark_failed0B8_
FN:300,_RNCNvMNtNtCs4I6j3VtXKYU_20rain_tracker_service2db26fopr_import_job_repositoryNtB4_23FoprImportJobRepository13create_job_tx0B8_
FN:450,_RNCNvMNtNtCs4I6j3VtXKYU_20rain_tracker_service2db26fopr_import_job_repositoryNtB4_23FoprImportJobRepository13job_exists_tx0B8_
FN:114,_RNCNvMNtNtCs4I6j3VtXKYU_20rain_tracker_service2db26fopr_import_job_repositoryNtB4_23FoprImportJobRepository14claim_next_job0B8_
FN:153,_RNCNvMNtNtCs4I6j3VtXKYU_20rain_tracker_service2db26fopr_import_job_repositoryNtB4_23FoprImportJobRepository14mark_completed0B8_
FN:413,_RNCNvMNtNtCs4I6j3VtXKYU_20rain_tracker_service2db26fopr_import_job_repositoryNtB4_23FoprImportJobRepository14mark_failed_tx0B8_
FN:266,_RNCNvMNtNtCs4I6j3VtXKYU_20rain_tracker_service2db26fopr_import_job_repositoryNtB4_23FoprImportJobRepository16get_pending_jobs0B8_
FN:335,_RNCNvMNtNtCs4I6j3VtXKYU_20rain_tracker_service2db26fopr_import_job_repositoryNtB4_23FoprImportJobRepository17claim_next_job_tx0B8_
FN:379,_RNCNvMNtNtCs4I6j3VtXKYU_20rain_tracker_service2db26fopr_import_job_repositoryNtB4_23FoprImportJobRepository17mark_completed_tx0B8_
FN:501,_RNCNvMNtNtCs4I6j3VtXKYU_20rain_tracker_service2db26fopr_import_job_repositoryNtB4_23FoprImportJobRepository19get_pending_jobs_tx0B8_
FN:244,_RNCNvMNtNtCs4I6j3VtXKYU_20rain_tracker_service2db26fopr_import_job_repositoryNtB4_23FoprImportJobRepository7get_job0B8_
FN:73,_RNvMNtNtCs4I6j3VtXKYU_20rain_tracker_service2db26fopr_import_job_repositoryNtB2_23FoprImportJobRepository10create_job
FN:472,_RNvMNtNtCs4I6j3VtXKYU_20rain_tracker_service2db26fopr_import_job_repositoryNtB2_23FoprImportJobRepository10get_job_tx
FN:222,_RNvMNtNtCs4I6j3VtXKYU_20rain_tracker_service2db26fopr_import_job_repositoryNtB2_23FoprImportJobRepository10job_exists
FN:182,_RNvMNtNtCs4I6j3VtXKYU_20rain_tracker_service2db26fopr_import_job_repositoryNtB2_23FoprImportJobRepository11mark_failed
FN:293,_RNvMNtNtCs4I6j3VtXKYU_20rain_tracker_service2db26fopr_import_job_repositoryNtB2_23FoprImportJobRepository13create_job_tx
FN:446,_RNvMNtNtCs4I6j3VtXKYU_20rain_tracker_service2db26fopr_import_job_repositoryNtB2_23FoprImportJobRepository13job_exists_tx
FN:114,_RNvMNtNtCs4I6j3VtXKYU_20rain_tracker_service2db26fopr_import_job_repositoryNtB2_23FoprImportJobRepository14claim_next_job
FN:153,_RNvMNtNtCs4I6j3VtXKYU_20rain_tracker_service2db26fopr_import_job_repositoryNtB2_23FoprImportJobRepository14mark_completed
FN:405,_RNvMNtNtCs4I6j3VtXKYU_20rain_tracker_service2db26fopr_import_job_repositoryNtB2_23FoprImportJobRepository14mark_failed_tx
FN:266,_RNvMNtNtCs4I6j3VtXKYU_20rain_tracker_service2db26fopr_import_job_repositoryNtB2_23FoprImportJobRepository16get_pending_jobs
FN:332,_RNvMNtNtCs4I6j3VtXKYU_20rain_tracker_service2db26fopr_import_job_repositoryNtB2_23FoprImportJobRepository17claim_next_job_tx
FN:374,_RNvMNtNtCs4I6j3VtXKYU_20rain_tracker_service2db26fopr_import_job_repositoryNtB2_23FoprImportJobRepository17mark_completed_tx
FN:498,_RNvMNtNtCs4I6j3VtXKYU_20rain_tracker_service2db26fopr_import_job_repositoryNtB2_23FoprImportJobRepository19get_pending_jobs_tx
FN:67,_RNvMNtNtCs4I6j3VtXKYU_20rain_tracker_service2db26fopr_import_job_repositoryNtB2_23FoprImportJobRepository3new
FN:244,_RNvMNtNtCs4I6j3VtXKYU_20rain_tracker_service2db26fopr_import_job_repositoryNtB2_23FoprImportJobRepository7get_job
FN:83,_RNCNCNCNvMNtNtCs7iCqo0KpDVZ_20rain_tracker_service2db26fopr_import_job_repositoryNtB8_23FoprImportJobRepository10create_job000Cs449oeRE4YCE_23worker_integration_test
FN:79,_RNCNvMNtNtCs7iCqo0KpDVZ_20rain_tracker_service2db26fopr_import_job_repositoryNtB4_23FoprImportJobRepository10create_job0Cs449oeRE4YCE_23worker_integration_test
FNDA:0,_RNCNCNCNvMNtNtCs7iCqo0KpDVZ_20rain_tracker_service2db26fopr_import_job_repositoryNtB8_23FoprImportJobRepository10create_job000Bc_
FNDA:0,_RNCNCNCNvMNtNtCs7iCqo0KpDVZ_20rain_tracker_service2db26fopr_import_job_repositoryNtB8_23FoprImportJobRepository13create_job_tx000Bc_
FNDA:0,_RNCNvMNtNtCs7iCqo0KpDVZ_20rain_tracker_service2db26fopr_import_job_repositoryNtB4_23FoprImportJobRepository10create_job0B8_
FNDA:0,_RNCNvMNtNtCs7iCqo0KpDVZ_20rain_tracker_service2db26fopr_import_job_repositoryNtB4_23FoprImportJobRepository10get_job_tx0B8_
FNDA:0,_RNCNvMNtNtCs7iCqo0KpDVZ_20rain_tracker_service2db26fopr_import_job_repositoryNtB4_23FoprImportJobRepository10job_exists0B8_
FNDA:0,_RNCNvMNtNtCs7iCqo0KpDVZ_20rain_tracker_service2db26fopr_import_job_repositoryNtB4_23FoprImportJobRepository11mark_failed0B8_
FNDA:0,_RNCNvMNtNtCs7iCqo0KpDVZ_20rain_tracker_service2db26fopr_import_job_repositoryNtB4_23FoprImportJobRepository13create_job_tx0B8_
FNDA:0,_RNCNvMNtNtCs7iCqo0KpDVZ_20rain_tracker_service2db26fopr_import_job_repositoryNtB4_23FoprImportJobRepository13job_exists_tx0B8_
FNDA:0,_RNCNvMNtNtCs7iCqo0KpDVZ_20rain_tracker_service2db26fopr_import_job_repositoryNtB4_23FoprImportJobRepository14claim_next_job0B8_
FNDA:0,_RNCNvMNtNtCs7iCqo0KpDVZ_20rain_tracker_service2db26fopr_import_job_repositoryNtB4_23FoprImportJobRepository14mark_completed0B8_
FNDA:0,_RNCNvMNtNtCs7iCqo0KpDVZ_20rain_tracker_service2db26fopr_import_job_repositoryNtB4_23FoprImportJobRepository14mark_failed_tx0B8_
FNDA:0,_RNCNvMNtNtCs7iCqo0KpDVZ_20rain_tracker_service2db26fopr_import_job_repositoryNtB4_23FoprImportJobRepository16get_pending_jobs0B8_
FNDA:0,_RNCNvMNtNtCs7iCqo0KpDVZ_20rain_tracker_service2db26fopr_import_job_repositoryNtB4_23FoprImportJobRepository17claim_next_job_tx0B8_
FNDA:0,_RNCNvMNtNtCs7iCqo0KpDVZ_20rain_tracker_service2db26fopr_import_job_repositoryNtB4_23FoprImportJobRepository17mark_completed_tx0B8_
FNDA:0,_RNCNvMNtNtCs7iCqo0KpDVZ_20rain_tracker_service2db26fopr_import_job_repositoryNtB4_23FoprImportJobRepository19get_pending_jobs_tx0B8_
FNDA:0,_RNCNvMNtNtCs7iCqo0KpDVZ_20rain_tracker_service2db26fopr_import_job_repositoryNtB4_23FoprImportJobRepository7get_job0B8_
FNDA:20,_RNvMNtNtCs7iCqo0KpDVZ_20rain_tracker_service2db26fopr_import_job_repositoryNtB2_23FoprImportJobRepository10create_job
FNDA:1,_RNvMNtNtCs7iCqo0KpDVZ_20rain_tracker_service2db26fopr_import_job_repositoryNtB2_23FoprImportJobRepository10get_job_tx
FNDA:7,_RNvMNtNtCs7iCqo0KpDVZ_20rain_tracker_service2db26fopr_import_job_repositoryNtB2_23FoprImportJobRepository10job_exists
FNDA:10,_RNvMNtNtCs7iCqo0KpDVZ_20rain_tracker_service2db26fopr_import_job_repositoryNtB2_23FoprImportJobRepository11mark_failed
FNDA:1,_RNvMNtNtCs7iCqo0KpDVZ_20rain_tracker_service2db26fopr_import_job_repositoryNtB2_23FoprImportJobRepository13create_job_tx
FNDA:1,_RNvMNtNtCs7iCqo0KpDVZ_20rain_tracker_service2db26fopr_import_job_repositoryNtB2_23FoprImportJobRepository13job_exists_tx
FNDA:19,_RNvMNtNtCs7iCqo0KpDVZ_20rain_tracker_service2db26fopr_import_job_repositoryNtB2_23FoprImportJobRepository14claim_next_job
FNDA:1,_RNvMNtNtCs7iCqo0KpDVZ_20rain_tracker_service2db26fopr_import_job_repositoryNtB2_23FoprImportJobRepository14mark_completed
FNDA:1,_RNvMNtNtCs7iCqo0KpDVZ_20rain_tracker_service2db26fopr_import_job_repositoryNtB2_23FoprImportJobRepository14mark_failed_tx
FNDA:2,_RNvMNtNtCs7iCqo0KpDVZ_20rain_tracker_service2db26fopr_import_job_repositoryNtB2_23FoprImportJobRepository16get_pending_jobs
FNDA:1,_RNvMNtNtCs7iCqo0KpDVZ_20rain_tracker_service2db26fopr_import_job_repositoryNtB2_23FoprImportJobRepository17claim_next_job_tx
FNDA:1,_RNvMNtNtCs7iCqo0KpDVZ_20rain_tracker_service2db26fopr_import_job_repositoryNtB2_23FoprImportJobRepository17mark_completed_tx
FNDA:1,_RNvMNtNtCs7iCqo0KpDVZ_20rain_tracker_service2db26fopr_import_job_repositoryNtB2_23FoprImportJobRepository19get_pending_jobs_tx
FNDA:50,_RNvMNtNtCs7iCqo0KpDVZ_20rain_tracker_service2db26fopr_import_job_repositoryNtB2_23FoprImportJobRepository3new
FNDA:11,_RNvMNtNtCs7iCqo0KpDVZ_20rain_tracker_service2db26fopr_import_job_repositoryNtB2_23FoprImportJobRepository7get_job
FNDA:2,_RNCNCNCNvMNtNtCs7iCqo0KpDVZ_20rain_tracker_service2db26fopr_import_job_repositoryNtB8_23FoprImportJobRepository10create_job000Cs3PAmBzODhhi_19error_handling_test
FNDA:2,_RNCNvMNtNtCs7iCqo0KpDVZ_20rain_tracker_service2db26fopr_import_job_repositoryNtB4_23FoprImportJobRepository10create_job0Cs3PAmBzODhhi_19error_handling_test
FNDA:5,_RNCNvMNtNtCs7iCqo0KpDVZ_20rain_tracker_service2db26fopr_import_job_repositoryNtB4_23FoprImportJobRepository10job_exists0Cs3PAmBzODhhi_19error_handling_test
FNDA:0,_RNCNCNCNvMNtNtCs7iCqo0KpDVZ_20rain_tracker_service2db26fopr_import_job_repositoryNtB8_23FoprImportJobRepository10create_job000CseH0guzo6yrj_31fopr_import_job_repository_test
FNDA:0,_RNCNCNCNvMNtNtCs7iCqo0KpDVZ_20rain_tracker_service2db26fopr_import_job_repositoryNtB8_23FoprImportJobRepository13create_job_tx000CseH0guzo6yrj_31fopr_import_job_repository_test
FNDA:7,_RNCNvMNtNtCs7iCqo0KpDVZ_20rain_tracker_service2db26fopr_import_job_repositoryNtB4_23FoprImportJobRepository10create_job0CseH0guzo6yrj_31fopr_import_job_repository_test
FNDA:1,_RNCNvMNtNtCs7iCqo0KpDVZ_20rain_tracker_service2db26fopr_import_job_repositoryNtB4_23FoprImportJobRepository10get_job_tx0CseH0guzo6yrj_31fopr_import_job_repository_test
FNDA:1,_RNCNvMNtNtCs7iCqo0KpDVZ_20rain_tracker_service2db26fopr_import_job_repositoryNtB4_23FoprImportJobRepository13create_job_tx0CseH0guzo6yrj_31fopr_import_job_repository_test
FNDA:1,_RNCNvMNtNtCs7iCqo0KpDVZ_20rain_tracker_service2db26fopr_import_job_repositoryNtB4_23FoprImportJobRepository13job_exists_tx0CseH0guzo6yrj_31fopr_import_job_repository_test
FNDA:2,_RNCNvMNtNtCs7iCqo0KpDVZ_20rain_tracker_service2db26fopr_import_job_repositoryNtB4_23FoprImportJobRepository14claim_next_job0CseH0guzo6yrj_31fopr_import_job_repository_test
FNDA:1,_RNCNvMNtNtCs7iCqo0KpDVZ_20rain_tracker_service2db26fopr_import_job_repositoryNtB4_23FoprImportJobRepository14mark_failed_tx0CseH0guzo6yrj_31fopr_import_job_repository_test
FNDA:2,_RNCNvMNtNtCs7iCqo0KpDVZ_20rain_tracker_service2db26fopr_import_job_repositoryNtB4_23FoprImportJobRepository16get_pending_jobs0CseH0guzo6yrj_31fopr_import_job_repository_test
FNDA:1,_RNCNvMNtNtCs7iCqo0KpDVZ_20rain_tracker_service2db26fopr_import_job_repositoryNtB4_23FoprImportJobRepository17claim_next_job_tx0CseH0guzo6yrj_31fopr_import_job_repository_test
FNDA:1,_RNCNvMNtNtCs7iCqo0KpDVZ_20rain_tracker_service2db26fopr_import_job_repositoryNtB4_23FoprImportJobRepository17mark_completed_tx0CseH0guzo6yrj_31fopr_import_job_repository_test
FNDA:1,_RNCNvMNtNtCs7iCqo0KpDVZ_20rain_tracker_service2db26fopr_import_job_repositoryNtB4_23FoprImportJobRepository19get_pending_jobs_tx0CseH0guzo6yrj_31fopr_import_job_repository_test
FNDA:3,_RNCNvMNtNtCs7iCqo0KpDVZ_20rain_tracker_service2db26fopr_import_job_repositoryNtB4_23FoprImportJobRepository7get_job0CseH0guzo6yrj_31fopr_import_job_repository_test
FNDA:0,_RNCNCNCNvMNtNtCs7iCqo0KpDVZ_20rain_tracker_service2db26fopr_import_job_repositoryNtB8_23FoprImportJobRepository10create_job000CskhdQylLvBLq_24fopr_import_service_test
FNDA:1,_RNCNvMNtNtCs7iCqo0KpDVZ_20rain_tracker_service2db26fopr_import_job_repositoryNtB4_23FoprImportJobRepository10create_job0CskhdQylLvBLq_24fopr_import_service_test
FNDA:2,_RNCNvMNtNtCs7iCqo0KpDVZ_20rain_tracker_service2db26fopr_import_job_repositoryNtB4_23FoprImportJobRepository10job_exists0CskhdQylLvBLq_24fopr_import_service_test
FNDA:0,_RNCNCNCNvMNtNtCs7iCqo0KpDVZ_20rain_tracker_service2db26fopr_import_job_repositoryNtB8_23FoprImportJobRepository10create_job000Cs1juIzkGC2Eo_23fopr_import_worker_test
FNDA:9,_RNCNvMNtNtCs7iCqo0KpDVZ_20rain_tracker_service2db26fopr_import_job_repositoryNtB4_23FoprImportJobRepository10create_job0Cs1juIzkGC2Eo_23fopr_import_worker_test
FNDA:10,_RNCNvMNtNtCs7iCqo0KpDVZ_20rain_tracker_service2db26fopr_import_job_repositoryNtB4_23FoprImportJobRepository11mark_failed0Cs1juIzkGC2Eo_23fopr_import_worker_test
FNDA:17,_RNCNvMNtNtCs7iCqo0KpDVZ_20rain_tracker_service2db26fopr_import_job_repositoryNtB4_23FoprImportJobRepository14claim_next_job0Cs1juIzkGC2Eo_23fopr_import_worker_test
FNDA:1,_RNCNvMNtNtCs7iCqo0KpDVZ_20rain_tracker_service2db26fopr_import_job_repositoryNtB4_23FoprImportJobRepository14mark_completed0Cs1juIzkGC2Eo_23fopr_import_worker_test
FNDA:8,_RNCNvMNtNtCs7iCqo0KpDVZ_20rain_tracker_service2db26fopr_import_job_repositoryNtB4_23FoprImportJobRepository7get_job0Cs1juIzkGC2Eo_23fopr_import_worker_test
FNDA:0,_RNCNCNCNvMNtNtCs7iCqo0KpDVZ_20rain_tracker_service2db26fopr_import_job_repositoryNtB8_23FoprImportJobRepository10create_job000Csdpfhlhhwi2Y_20rain_tracker_service
FNDA:0,_RNCNvMNtNtCs7iCqo0KpDVZ_20rain_tracker_service2db26fopr_import_job_repositoryNtB4_23FoprImportJobRepository10create_job0Csdpfhlhhwi2Y_20rain_tracker_service
FNDA:0,_RNCNvMNtNtCs7iCqo0KpDVZ_20rain_tracker_service2db26fopr_import_job_repositoryNtB4_23FoprImportJobRepository10job_exists0Csdpfhlhhwi2Y_20rain_tracker_service
FNDA:0,_RNCNvMNtNtCs7iCqo0KpDVZ_20rain_tracker_service2db26fopr_import_job_repositoryNtB4_23FoprImportJobRepository11mark_failed0Csdpfhlhhwi2Y_20rain_tracker_service
FNDA:0,_RNCNvMNtNtCs7iCqo0KpDVZ_20rain_tracker_service2db26fopr_import_job_repositoryNtB4_23FoprImportJobRepository14claim_next_job0Csdpfhlhhwi2Y_20rain_tracker_service
FNDA:0,_RNCNvMNtNtCs7iCqo0KpDVZ_20rain_tracker_service2db26fopr_import_job_repositoryNtB4_23FoprImportJobRepository14mark_completed0Csdpfhlhhwi2Y_20rain_tracker_service
FNDA:0,_RNCNCNCNvMNtNtCs4I6j3VtXKYU_20rain_tracker_service2db26fopr_import_job_repositoryNtB8_23FoprImportJobRepository10create_job000Bc_
FNDA:0,_RNCNCNCNvMNtNtCs4I6j3VtXKYU_20rain_tracker_service2db26fopr_import_job_repositoryNtB8_23FoprImportJobRepository13create_job_tx000Bc_
FNDA:0,_RNCNvMNtNtCs4I6j3VtXKYU_20rain_tracker_service2db26fopr_import_job_repositoryNtB4_23FoprImportJobRepository10create_job0B8_
FNDA:0,_RNCNvMNtNtCs4I6j3VtXKYU_20rain_tracker_service2db26fopr_import_job_repositoryNtB4_23FoprImportJobRepository10get_job_tx0B8_
FNDA:0,_RNCNvMNtNtCs4I6j3VtXKYU_20rain_tracker_service2db26fopr_import_job_repositoryNtB4_23FoprImportJobRepository10job_exists0B8_
FNDA:0,_RNCNvMNtNtCs4I6j3VtXKYU_20rain_tracker_service2db26fopr_import_job_repositoryNtB4_23FoprImportJobRepository11mark_failed0B8_
FNDA:0,_RNCNvMNtNtCs4I6j3VtXKYU_20rain_tracker_service2db26fopr_import_job_repositoryNtB4_23FoprImportJobRepository13create_job_tx0B8_
FNDA:0,_RNCNvMNtNtCs4I6j3VtXKYU_20rain_tracker_service2db26fopr_import_job_repositoryNtB4_23FoprImportJobRepository13job_exists_tx0B8_
FNDA:0,_RNCNvMNtNtCs4I6j3VtXKYU_20rain_tracker_service2db26fopr_import_job_repositoryNtB4_23FoprImportJobRepository14claim_next_job0B8_
FNDA:0,_RNCNvMNtNtCs4I6j3VtXKYU_20rain_tracker_service2db26fopr_import_job_repositoryNtB4_23FoprImportJobRepository14mark_completed0B8_
FNDA:0,_RNCNvMNtNtCs4I6j3VtXKYU_20rain_tracker_service2db26fopr_import_job_repositoryNtB4_23FoprImportJobRepository14mark_failed_tx0B8_
FNDA:0,_RNCNvMNtNtCs4I6j3VtXKYU_20rain_tracker_service2db26fopr_import_job_repositoryNtB4_23FoprImportJobRepository16get_pending_jobs0B8_
FNDA:0,_RNCNvMNtNtCs4I6j3VtXKYU_20rain_tracker_service2db26fopr_import_job_repositoryNtB4_23FoprImportJobRepository17claim_next_job_tx0B8_
FNDA:0,_RNCNvMNtNtCs4I6j3VtXKYU_20rain_tracker_service2db26fopr_import_job_repositoryNtB4_23FoprImportJobRepository17mark_completed_tx0B8_
FNDA:0,_RNCNvMNtNtCs4I6j3VtXKYU_20rain_tracker_service2db26fopr_import_job_repositoryNtB4_23FoprImportJobRepository19get_pending_jobs_tx0B8_
FNDA:0,_RNCNvMNtNtCs4I6j3VtXKYU_20rain_tracker_service2db26fopr_import_job_repositoryNtB4_23FoprImportJobRepository7get_job0B8_
FNDA:0,_RNvMNtNtCs4I6j3VtXKYU_20rain_tracker_service2db26fopr_import_job_repositoryNtB2_23FoprImportJobRepository10create_job
FNDA:0,_RNvMNtNtCs4I6j3VtXKYU_20rain_tracker_service2db26fopr_import_job_repositoryNtB2_23FoprImportJobRepository10get_job_tx
FNDA:0,_RNvMNtNtCs4I6j3VtXKYU_20rain_tracker_service2db26fopr_import_job_repositoryNtB2_23FoprImportJobRepository10job_exists
FNDA:0,_RNvMNtNtCs4I6j3VtXKYU_20rain_tracker_service2db26fopr_import_job_repositoryNtB2_23FoprImportJobRepository11mark_failed
FNDA:0,_RNvMNtNtCs4I6j3VtXKYU_20rain_tracker_service2db26fopr_import_job_repositoryNtB2_23FoprImportJobRepository13create_job_tx
FNDA:0,_RNvMNtNtCs4I6j3VtXKYU_20rain_tracker_service2db26fopr_import_job_repositoryNtB2_23FoprImportJobRepository13job_exists_tx
FNDA:0,_RNvMNtNtCs4I6j3VtXKYU_20rain_tracker_service2db26fopr_import_job_repositoryNtB2_23FoprImportJobRepository14claim_next_job
FNDA:0,_RNvMNtNtCs4I6j3VtXKYU_20rain_tracker_service2db26fopr_import_job_repositoryNtB2_23FoprImportJobRepository14mark_completed
FNDA:0,_RNvMNtNtCs4I6j3VtXKYU_20rain_tracker_service2db26fopr_import_job_repositoryNtB2_23FoprImportJobRepository14mark_failed_tx
FNDA:0,_RNvMNtNtCs4I6j3VtXKYU_20rain_tracker_service2db26fopr_import_job_repositoryNtB2_23FoprImportJobRepository16get_pending_jobs
FNDA:0,_RNvMNtNtCs4I6j3VtXKYU_20rain_tracker_service2db26fopr_import_job_repositoryNtB2_23FoprImportJobRepository17claim_next_job_tx
FNDA:0,_RNvMNtNtCs4I6j3VtXKYU_20rain_tracker_service2db26fopr_import_job_repositoryNtB2_23FoprImportJobRepository17mark_completed_tx
FNDA:0,_RNvMNtNtCs4I6j3VtXKYU_20rain_tracker_service2db26fopr_import_job_repositoryNtB2_23FoprImportJobRepository19get_pending_jobs_tx
FNDA:0,_RNvMNtNtCs4I6j3VtXKYU_20rain_tracker_service2db26fopr_import_job_repositoryNtB2_23FoprImportJobRepository3new
FNDA:0,_RNvMNtNtCs4I6j3VtXKYU_20rain_tracker_service2db26fopr_import_job_repositoryNtB2_23FoprImportJobRepository7get_job
FNDA:0,_RNCNCNCNvMNtNtCs7iCqo0KpDVZ_20rain_tracker_service2db26fopr_import_job_repositoryNtB8_23FoprImportJobRepository10create_job000Cs449oeRE4YCE_23worker_integration_test
FNDA:1,_RNCNvMNtNtCs7iCqo0KpDVZ_20rain_tracker_service2db26fopr_import_job_repositoryNtB4_23FoprImportJobRepository10create_job0Cs449oeRE4YCE_23worker_integration_test
FNF:31
FNH:30
DA:67,50
DA:68,50
DA:69,50
DA:73,20
DA:74,20
DA:75,20
DA:76,20
DA:77,20
DA:78,20
DA:79,20
DA:83,2
DA:107,20
DA:114,19
DA:149,19
DA:153,1
DA:175,1
DA:182,10
DA:183,10
DA:184,10
DA:185,10
DA:186,10
DA:187,10
DA:188,10
DA:189,10
DA:218,10
DA:222,7
DA:240,7
DA:244,11
DA:262,11
DA:266,2
DA:285,2
DA:293,1
DA:294,1
DA:295,1
DA:296,1
DA:297,1
DA:298,1
DA:299,1
DA:300,1
DA:304,0
DA:328,1
DA:332,1
DA:333,1
DA:334,1
DA:335,1
DA:370,1
DA:374,1
DA:375,1
DA:376,1
DA:377,1
DA:378,1
DA:379,1
DA:401,1
DA:405,1
DA:406,1
DA:407,1
DA:408,1
DA:409,1
DA:410,1
DA:411,1
DA:412,1
DA:413,1
DA:442,1
DA:446,1
DA:447,1
DA:448,1
DA:449,1
DA:450,1
DA:468,1
DA:472,1
DA:473,1
DA:474,1
DA:475,1
DA:476,1
DA:494,1
DA:498,1
DA:499,1
DA:500,1
DA:501,1
DA:520,1
BRF:0
BRH:0
LF:94
LH:93
end_of_record
SF:/Users/terry/RustroverProjects/rain-tracker-service/src/db/gauge_repository.rs
FN:59,_RNCNCNCNvMNtNtCs7iCqo0KpDVZ_20rain_tracker_service2db16gauge_repositoryNtB8_15GaugeRepository16upsert_summaries000Bc_
FN:223,_RNCNvMNtNtCs7iCqo0KpDVZ_20rain_tracker_service2db16gauge_repositoryNtB4_15GaugeRepository12gauge_exists0B8_
FN:322,_RNCNvMNtNtCs7iCqo0KpDVZ_20rain_tracker_service2db16gauge_repositoryNtB4_15GaugeRepository13find_by_id_tx0B8_
FN:355,_RNCNvMNtNtCs7iCqo0KpDVZ_20rain_tracker_service2db16gauge_repositoryNtB4_15GaugeRepository15gauge_exists_tx0B8_
FN:19,_RNCNvMNtNtCs7iCqo0KpDVZ_20rain_tracker_service2db16gauge_repositoryNtB4_15GaugeRepository16upsert_summaries0B8_
FN:383,_RNCNvMNtNtCs7iCqo0KpDVZ_20rain_tracker_service2db16gauge_repositoryNtB4_15GaugeRepository17find_paginated_tx0B8_
FN:148,_RNCNvMNtNtCs7iCqo0KpDVZ_20rain_tracker_service2db16gauge_repositoryNtB4_15GaugeRepository21upsert_gauge_metadata0B8_
FN:244,_RNCNvMNtNtCs7iCqo0KpDVZ_20rain_tracker_service2db16gauge_repositoryNtB4_15GaugeRepository24upsert_gauge_metadata_tx0B8_
FN:368,_RNCNvMNtNtCs7iCqo0KpDVZ_20rain_tracker_service2db16gauge_repositoryNtB4_15GaugeRepository8count_tx0B8_
FN:116,_RNCNvMNtNtCs7iCqo0KpDVZ_20rain_tracker_service2db16gauge_repositoryNtB4_15GaugeRepository10find_by_id0B8_
FN:91,_RNCNvMNtNtCs7iCqo0KpDVZ_20rain_tracker_service2db16gauge_repositoryNtB4_15GaugeRepository14find_paginated0B8_
FN:78,_RNCNvMNtNtCs7iCqo0KpDVZ_20rain_tracker_service2db16gauge_repositoryNtB4_15GaugeRepository5count0B8_
FN:116,_RNvMNtNtCs7iCqo0KpDVZ_20rain_tracker_service2db16gauge_repositoryNtB2_15GaugeRepository10find_by_id
FN:223,_RNvMNtNtCs7iCqo0KpDVZ_20rain_tracker_service2db16gauge_repositoryNtB2_15GaugeRepository12gauge_exists
FN:318,_RNvMNtNtCs7iCqo0KpDVZ_20rain_tracker_service2db16gauge_repositoryNtB2_15GaugeRepository13find_by_id_tx
FN:87,_RNvMNtNtCs7iCqo0KpDVZ_20rain_tracker_service2db16gauge_repositoryNtB2_15GaugeRepository14find_paginated
FN:351,_RNvMNtNtCs7iCqo0KpDVZ_20rain_tracker_service2db16gauge_repositoryNtB2_15GaugeRepository15gauge_exists_tx
FN:19,_RNvMNtNtCs7iCqo0KpDVZ_20rain_tracker_service2db16gauge_repositoryNtB2_15GaugeRepository16upsert_summaries
FN:378,_RNvMNtNtCs7iCqo0KpDVZ_20rain_tracker_service2db16gauge_repositoryNtB2_15GaugeRepository17find_paginated_tx
FN:148,_RNvMNtNtCs7iCqo0KpDVZ_20rain_tracker_service2db16gauge_repositoryNtB2_15GaugeRepository21upsert_gauge_metadata
FN:240,_RNvMNtNtCs7iCqo0KpDVZ_20rain_tracker_service2db16gauge_repositoryNtB2_15GaugeRepository24upsert_gauge_metadata_tx
FN:14,_RNvMNtNtCs7iCqo0KpDVZ_20rain_tracker_service2db16gauge_repositoryNtB2_15GaugeRepository3new
FN:78,_RNvMNtNtCs7iCqo0KpDVZ_20rain_tracker_service2db16gauge_repositoryNtB2_15GaugeRepository5count
FN:368,_RNvMNtNtCs7iCqo0KpDVZ_20rain_tracker_service2db16gauge_repositoryNtB2_15GaugeRepository8count_tx
FN:148,_RNCNvMNtNtCs7iCqo0KpDVZ_20rain_tracker_service2db16gauge_repositoryNtB4_15GaugeRepository21upsert_gauge_metadata0Cs6zvS6A0gBSI_20api_integration_test
FN:59,_RNCNCNCNvMNtNtCs7iCqo0KpDVZ_20rain_tracker_service2db16gauge_repositoryNtB8_15GaugeRepository16upsert_summaries000Cs3PAmBzODhhi_19error_handling_test
FN:223,_RNCNvMNtNtCs7iCqo0KpDVZ_20rain_tracker_service2db16gauge_repositoryNtB4_15GaugeRepository12gauge_exists0Cs3PAmBzODhhi_19error_handling_test
FN:19,_RNCNvMNtNtCs7iCqo0KpDVZ_20rain_tracker_service2db16gauge_repositoryNtB4_15GaugeRepository16upsert_summaries0Cs3PAmBzODhhi_19error_handling_test
FN:148,_RNCNvMNtNtCs7iCqo0KpDVZ_20rain_tracker_service2db16gauge_repositoryNtB4_15GaugeRepository21upsert_gauge_metadata0Cs3PAmBzODhhi_19error_handling_test
FN:148,_RNCNvMNtNtCs7iCqo0KpDVZ_20rain_tracker_service2db16gauge_repositoryNtB4_15GaugeRepository21upsert_gauge_metadata0CskhdQylLvBLq_24fopr_import_service_test
FN:223,_RNCNvMNtNtCs7iCqo0KpDVZ_20rain_tracker_service2db16gauge_repositoryNtB4_15GaugeRepository12gauge_exists0Cs1juIzkGC2Eo_23fopr_import_worker_test
FN:148,_RNCNvMNtNtCs7iCqo0KpDVZ_20rain_tracker_service2db16gauge_repositoryNtB4_15GaugeRepository21upsert_gauge_metadata0Cs1juIzkGC2Eo_23fopr_import_worker_test
FN:59,_RNCNCNCNvMNtNtCs7iCqo0KpDVZ_20rain_tracker_service2db16gauge_repositoryNtB8_15GaugeRepository16upsert_summaries000Csg1aD9cOPpNR_21gauge_repository_test
FN:223,_RNCNvMNtNtCs7iCqo0KpDVZ_20rain_tracker_service2db16gauge_repositoryNtB4_15GaugeRepository12gauge_exists0Csg1aD9cOPpNR_21gauge_repository_test
FN:322,_RNCNvMNtNtCs7iCqo0KpDVZ_20rain_tracker_service2db16gauge_repositoryNtB4_15GaugeRepository13find_by_id_tx0Csg1aD9cOPpNR_21gauge_repository_test
FN:355,_RNCNvMNtNtCs7iCqo0KpDVZ_20rain_tracker_service2db16gauge_repositoryNtB4_15GaugeRepository15gauge_exists_tx0Csg1aD9cOPpNR_21gauge_repository_test
FN:19,_RNCNvMNtNtCs7iCqo0KpDVZ_20rain_tracker_service2db16gauge_repositoryNtB4_15GaugeRepository16upsert_summaries0Csg1aD9cOPpNR_21gauge_repository_test
FN:383,_RNCNvMNtNtCs7iCqo0KpDVZ_20rain_tracker_service2db16gauge_repositoryNtB4_15GaugeRepository17find_paginated_tx0Csg1aD9cOPpNR_21gauge_repository_test
FN:148,_RNCNvMNtNtCs7iCqo0KpDVZ_20rain_tracker_service2db16gauge_repositoryNtB4_15GaugeRepository21upsert_gauge_metadata0Csg1aD9cOPpNR_21gauge_repository_test
FN:244,_RNCNvMNtNtCs7iCqo0KpDVZ_20rain_tracker_service2db16gauge_repositoryNtB4_15GaugeRepository24upsert_gauge_metadata_tx0Csg1aD9cOPpNR_21gauge_repository_test
FN:368,_RNCNvMNtNtCs7iCqo0KpDVZ_20rain_tracker_service2db16gauge_repositoryNtB4_15GaugeRepository8count_tx0Csg1aD9cOPpNR_21gauge_repository_test
FN:223,_RNCNvMNtNtCs7iCqo0KpDVZ_20rain_tracker_service2db16gauge_repositoryNtB4_15GaugeRepository12gauge_exists0Cs30uj6WIuzt3_17historical_import
FN:148,_RNCNvMNtNtCs7iCqo0KpDVZ_20rain_tracker_service2db16gauge_repositoryNtB4_15GaugeRepository21upsert_gauge_metadata0Cs30uj6WIuzt3_17historical_import
FN:244,_RNCNvMNtNtCs7iCqo0KpDVZ_20rain_tracker_service2db16gauge_repositoryNtB4_15GaugeRepository24upsert_gauge_metadata_tx0CsfwmCgHvd3Ip_16integration_test
FN:59,_RNCNCNCNvMNtNtCs7iCqo0KpDVZ_20rain_tracker_service2db16gauge_repositoryNtB8_15GaugeRepository16upsert_summaries000Csdpfhlhhwi2Y_20rain_tracker_service
FN:223,_RNCNvMNtNtCs7iCqo0KpDVZ_20rain_tracker_service2db16gauge_repositoryNtB4_15GaugeRepository12gauge_exists0Csdpfhlhhwi2Y_20rain_tracker_service
FN:19,_RNCNvMNtNtCs7iCqo0KpDVZ_20rain_tracker_service2db16gauge_repositoryNtB4_15GaugeRepository16upsert_summaries0Csdpfhlhhwi2Y_20rain_tracker_service
FN:148,_RNCNvMNtNtCs7iCqo0KpDVZ_20rain_tracker_service2db16gauge_repositoryNtB4_15GaugeRepository21upsert_gauge_metadata0Csdpfhlhhwi2Y_20rain_tracker_service
FN:59,_RNCNCNCNvMNtNtCs4I6j3VtXKYU_20rain_tracker_service2db16gauge_repositoryNtB8_15GaugeRepository16upsert_summaries000Bc_
FN:116,_RNCNvMNtNtCs4I6j3VtXKYU_20rain_tracker_service2db16gauge_repositoryNtB4_15GaugeRepository10find_by_id0B8_
FN:223,_RNCNvMNtNtCs4I6j3VtXKYU_20rain_tracker_service2db16gauge_repositoryNtB4_15GaugeRepository12gauge_exists0B8_
FN:322,_RNCNvMNtNtCs4I6j3VtXKYU_20rain_tracker_service2db16gauge_repositoryNtB4_15GaugeRepository13find_by_id_tx0B8_
FN:91,_RNCNvMNtNtCs4I6j3VtXKYU_20rain_tracker_service2db16gauge_repositoryNtB4_15GaugeRepository14find_paginated0B8_
FN:355,_RNCNvMNtNtCs4I6j3VtXKYU_20rain_tracker_service2db16gauge_repositoryNtB4_15GaugeRepository15gauge_exists_tx0B8_
FN:19,_RNCNvMNtNtCs4I6j3VtXKYU_20rain_tracker_service2db16gauge_repositoryNtB4_15GaugeRepository16upsert_summaries0B8_
FN:383,_RNCNvMNtNtCs4I6j3VtXKYU_20rain_tracker_service2db16gauge_repositoryNtB4_15GaugeRepository17find_paginated_tx0B8_
FN:148,_RNCNvMNtNtCs4I6j3VtXKYU_20rain_tracker_service2db16gauge_repositoryNtB4_15GaugeRepository21upsert_gauge_metadata0B8_
FN:244,_RNCNvMNtNtCs4I6j3VtXKYU_20rain_tracker_service2db16gauge_repositoryNtB4_15GaugeRepository24upsert_gauge_metadata_tx0B8_
FN:78,_RNCNvMNtNtCs4I6j3VtXKYU_20rain_tracker_service2db16gauge_repositoryNtB4_15GaugeRepository5count0B8_
FN:368,_RNCNvMNtNtCs4I6j3VtXKYU_20rain_tracker_service2db16gauge_repositoryNtB4_15GaugeRepository8count_tx0B8_
FN:116,_RNvMNtNtCs4I6j3VtXKYU_20rain_tracker_service2db16gauge_repositoryNtB2_15GaugeRepository10find_by_id
FN:223,_RNvMNtNtCs4I6j3VtXKYU_20rain_tracker_service2db16gauge_repositoryNtB2_15GaugeRepository12gauge_exists
FN:318,_RNvMNtNtCs4I6j3VtXKYU_20rain_tracker_service2db16gauge_repositoryNtB2_15GaugeRepository13find_by_id_tx
FN:87,_RNvMNtNtCs4I6j3VtXKYU_20rain_tracker_service2db16gauge_repositoryNtB2_15GaugeRepository14find_paginated
FN:351,_RNvMNtNtCs4I6j3VtXKYU_20rain_tracker_service2db16gauge_repositoryNtB2_15GaugeRepository15gauge_exists_tx
FN:19,_RNvMNtNtCs4I6j3VtXKYU_20rain_tracker_service2db16gauge_repositoryNtB2_15GaugeRepository16upsert_summaries
FN:378,_RNvMNtNtCs4I6j3VtXKYU_20rain_tracker_service2db16gauge_repositoryNtB2_15GaugeRepository17find_paginated_tx
FN:148,_RNvMNtNtCs4I6j3VtXKYU_20rain_tracker_service2db16gauge_repositoryNtB2_15GaugeRepository21upsert_gauge_metadata
FN:240,_RNvMNtNtCs4I6j3VtXKYU_20rain_tracker_service2db16gauge_repositoryNtB2_15GaugeRepository24upsert_gauge_metadata_tx
FN:14,_RNvMNtNtCs4I6j3VtXKYU_20rain_tracker_service2db16gauge_repositoryNtB2_15GaugeRepository3new
FN:78,_RNvMNtNtCs4I6j3VtXKYU_20rain_tracker_service2db16gauge_repositoryNtB2_15GaugeRepository5count
FN:368,_RNvMNtNtCs4I6j3VtXKYU_20rain_tracker_service2db16gauge_repositoryNtB2_15GaugeRepository8count_tx
FNDA:0,_RNCNCNCNvMNtNtCs7iCqo0KpDVZ_20rain_tracker_service2db16gauge_repositoryNtB8_15GaugeRepository16upsert_summaries000Bc_
FNDA:0,_RNCNvMNtNtCs7iCqo0KpDVZ_20rain_tracker_service2db16gauge_repositoryNtB4_15GaugeRepository12gauge_exists0B8_
FNDA:0,_RNCNvMNtNtCs7iCqo0KpDVZ_20rain_tracker_service2db16gauge_repositoryNtB4_15GaugeRepository13find_by_id_tx0B8_
FNDA:0,_RNCNvMNtNtCs7iCqo0KpDVZ_20rain_tracker_service2db16gauge_repositoryNtB4_15GaugeRepository15gauge_exists_tx0B8_
FNDA:0,_RNCNvMNtNtCs7iCqo0KpDVZ_20rain_tracker_service2db16gauge_repositoryNtB4_15GaugeRepository16upsert_summaries0B8_
FNDA:0,_RNCNvMNtNtCs7iCqo0KpDVZ_20rain_tracker_service2db16gauge_repositoryNtB4_15GaugeRepository17find_paginated_tx0B8_
FNDA:0,_RNCNvMNtNtCs7iCqo0KpDVZ_20rain_tracker_service2db16gauge_repositoryNtB4_15GaugeRepository21upsert_gauge_metadata0B8_
FNDA:0,_RNCNvMNtNtCs7iCqo0KpDVZ_20rain_tracker_service2db16gauge_repositoryNtB4_15GaugeRepository24upsert_gauge_metadata_tx0B8_
FNDA:0,_RNCNvMNtNtCs7iCqo0KpDVZ_20rain_tracker_service2db16gauge_repositoryNtB4_15GaugeRepository8count_tx0B8_
FNDA:5,_RNCNvMNtNtCs7iCqo0KpDVZ_20rain_tracker_service2db16gauge_repositoryNtB4_15GaugeRepository10find_by_id0B8_
FNDA:4,_RNCNvMNtNtCs7iCqo0KpDVZ_20rain_tracker_service2db16gauge_repositoryNtB4_15GaugeRepository14find_paginated0B8_
FNDA:4,_RNCNvMNtNtCs7iCqo0KpDVZ_20rain_tracker_service2db16gauge_repositoryNtB4_15GaugeRepository5count0B8_
FNDA:5,_RNvMNtNtCs7iCqo0KpDVZ_20rain_tracker_service2db16gauge_repositoryNtB2_15GaugeRepository10find_by_id
FNDA:58,_RNvMNtNtCs7iCqo0KpDVZ_20rain_tracker_service2db16gauge_repositoryNtB2_15GaugeRepository12gauge_exists
FNDA:1,_RNvMNtNtCs7iCqo0KpDVZ_20rain_tracker_service2db16gauge_repositoryNtB2_15GaugeRepository13find_by_id_tx
FNDA:4,_RNvMNtNtCs7iCqo0KpDVZ_20rain_tracker_service2db16gauge_repositoryNtB2_15GaugeRepository14find_paginated
FNDA:1,_RNvMNtNtCs7iCqo0KpDVZ_20rain_tracker_service2db16gauge_repositoryNtB2_15GaugeRepository15gauge_exists_tx
FNDA:14,_RNvMNtNtCs7iCqo0KpDVZ_20rain_tracker_service2db16gauge_repositoryNtB2_15GaugeRepository16upsert_summaries
FNDA:1,_RNvMNtNtCs7iCqo0KpDVZ_20rain_tracker_service2db16gauge_repositoryNtB2_15GaugeRepository17find_paginated_tx
FNDA:22,_RNvMNtNtCs7iCqo0KpDVZ_20rain_tracker_service2db16gauge_repositoryNtB2_15GaugeRepository21upsert_gauge_metadata
FNDA:6,_RNvMNtNtCs7iCqo0KpDVZ_20rain_tracker_service2db16gauge_repositoryNtB2_15GaugeRepository24upsert_gauge_metadata_tx
FNDA:138,_RNvMNtNtCs7iCqo0KpDVZ_20rain_tracker_service2db16gauge_repositoryNtB2_15GaugeRepository3new
FNDA:4,_RNvMNtNtCs7iCqo0KpDVZ_20rain_tracker_service2db16gauge_repositoryNtB2_15GaugeRepository5count
FNDA:1,_RNvMNtNtCs7iCqo0KpDVZ_20rain_tracker_service2db16gauge_repositoryNtB2_15GaugeRepository8count_tx
FNDA:4,_RNCNvMNtNtCs7iCqo0KpDVZ_20rain_tracker_service2db16gauge_repositoryNtB4_15GaugeRepository21upsert_gauge_metadata0Cs6zvS6A0gBSI_20api_integration_test
FNDA:1,_RNCNCNCNvMNtNtCs7iCqo0KpDVZ_20rain_tracker_service2db16gauge_repositoryNtB8_15GaugeRepository16upsert_summaries000Cs3PAmBzODhhi_19error_handling_test
FNDA:6,_RNCNvMNtNtCs7iCqo0KpDVZ_20rain_tracker_service2db16gauge_repositoryNtB4_15GaugeRepository12gauge_exists0Cs3PAmBzODhhi_19error_handling_test
FNDA:1,_RNCNvMNtNtCs7iCqo0KpDVZ_20rain_tracker_service2db16gauge_repositoryNtB4_15GaugeRepository16upsert_summaries0Cs3PAmBzODhhi_19error_handling_test
FNDA:1,_RNCNvMNtNtCs7iCqo0KpDVZ_20rain_tracker_service2db16gauge_repositoryNtB4_15GaugeRepository21upsert_gauge_metadata0Cs3PAmBzODhhi_19error_handling_test
FNDA:0,_RNCNvMNtNtCs7iCqo0KpDVZ_20rain_tracker_service2db16gauge_repositoryNtB4_15GaugeRepository21upsert_gauge_metadata0CskhdQylLvBLq_24fopr_import_service_test
FNDA:48,_RNCNvMNtNtCs7iCqo0KpDVZ_20rain_tracker_service2db16gauge_repositoryNtB4_15GaugeRepository12gauge_exists0Cs1juIzkGC2Eo_23fopr_import_worker_test
FNDA:0,_RNCNvMNtNtCs7iCqo0KpDVZ_20rain_tracker_service2db16gauge_repositoryNtB4_15GaugeRepository21upsert_gauge_metadata0Cs1juIzkGC2Eo_23fopr_import_worker_test
FNDA:0,_RNCNCNCNvMNtNtCs7iCqo0KpDVZ_20rain_tracker_service2db16gauge_repositoryNtB8_15GaugeRepository16upsert_summaries000Csg1aD9cOPpNR_21gauge_repository_test
FNDA:4,_RNCNvMNtNtCs7iCqo0KpDVZ_20rain_tracker_service2db16gauge_repositoryNtB4_15GaugeRepository12gauge_exists0Csg1aD9cOPpNR_21gauge_repository_test
FNDA:1,_RNCNvMNtNtCs7iCqo0KpDVZ_20rain_tracker_service2db16gauge_repositoryNtB4_15GaugeRepository13find_by_id_tx0Csg1aD9cOPpNR_21gauge_repository_test
FNDA:1,_RNCNvMNtNtCs7iCqo0KpDVZ_20rain_tracker_service2db16gauge_repositoryNtB4_15GaugeRepository15gauge_exists_tx0Csg1aD9cOPpNR_21gauge_repository_test
FNDA:13,_RNCNvMNtNtCs7iCqo0KpDVZ_20rain_tracker_service2db16gauge_repositoryNtB4_15GaugeRepository16upsert_summaries0Csg1aD9cOPpNR_21gauge_repository_test
FNDA:1,_RNCNvMNtNtCs7iCqo0KpDVZ_20rain_tracker_service2db16gauge_repositoryNtB4_15GaugeRepository17find_paginated_tx0Csg1aD9cOPpNR_21gauge_repository_test
FNDA:17,_RNCNvMNtNtCs7iCqo0KpDVZ_20rain_tracker_service2db16gauge_repositoryNtB4_15GaugeRepository21upsert_gauge_metadata0Csg1aD9cOPpNR_21gauge_repository_test
FNDA:1,_RNCNvMNtNtCs7iCqo0KpDVZ_20rain_tracker_service2db16gauge_repositoryNtB4_15GaugeRepository24upsert_gauge_metadata_tx0Csg1aD9cOPpNR_21gauge_repository_test
FNDA:1,_RNCNvMNtNtCs7iCqo0KpDVZ_20rain_tracker_service2db16gauge_repositoryNtB4_15GaugeRepository8count_tx0Csg1aD9cOPpNR_21gauge_repository_test
FNDA:0,_RNCNvMNtNtCs7iCqo0KpDVZ_20rain_tracker_service2db16gauge_repositoryNtB4_15GaugeRepository12gauge_exists0Cs30uj6WIuzt3_17historical_import
FNDA:0,_RNCNvMNtNtCs7iCqo0KpDVZ_20rain_tracker_service2db16gauge_repositoryNtB4_15GaugeRepository21upsert_gauge_metadata0Cs30uj6WIuzt3_17historical_import
FNDA:5,_RNCNvMNtNtCs7iCqo0KpDVZ_20rain_tracker_service2db16gauge_repositoryNtB4_15GaugeRepository24upsert_gauge_metadata_tx0CsfwmCgHvd3Ip_16integration_test
FNDA:0,_RNCNCNCNvMNtNtCs7iCqo0KpDVZ_20rain_tracker_service2db16gauge_repositoryNtB8_15GaugeRepository16upsert_summaries000Csdpfhlhhwi2Y_20rain_tracker_service
FNDA:0,_RNCNvMNtNtCs7iCqo0KpDVZ_20rain_tracker_service2db16gauge_repositoryNtB4_15GaugeRepository12gauge_exists0Csdpfhlhhwi2Y_20rain_tracker_service
FNDA:0,_RNCNvMNtNtCs7iCqo0KpDVZ_20rain_tracker_service2db16gauge_repositoryNtB4_15GaugeRepository16upsert_summaries0Csdpfhlhhwi2Y_20rain_tracker_service
FNDA:0,_RNCNvMNtNtCs7iCqo0KpDVZ_20rain_tracker_service2db16gauge_repositoryNtB4_15GaugeRepository21upsert_gauge_metadata0Csdpfhlhhwi2Y_20rain_tracker_service
FNDA:0,_RNCNCNCNvMNtNtCs4I6j3VtXKYU_20rain_tracker_service2db16gauge_repositoryNtB8_15GaugeRepository16upsert_summaries000Bc_
FNDA:0,_RNCNvMNtNtCs4I6j3VtXKYU_20rain_tracker_service2db16gauge_repositoryNtB4_15GaugeRepository10find_by_id0B8_
FNDA:0,_RNCNvMNtNtCs4I6j3VtXKYU_20rain_tracker_service2db16gauge_repositoryNtB4_15GaugeRepository12gauge_exists0B8_
FNDA:0,_RNCNvMNtNtCs4I6j3VtXKYU_20rain_tracker_service2db16gauge_repositoryNtB4_15GaugeRepository13find_by_id_tx0B8_
FNDA:0,_RNCNvMNtNtCs4I6j3VtXKYU_20rain_tracker_service2db16gauge_repositoryNtB4_15GaugeRepository14find_paginated0B8_
FNDA:0,_RNCNvMNtNtCs4I6j3VtXKYU_20rain_tracker_service2db16gauge_repositoryNtB4_15GaugeRepository15gauge_exists_tx0B8_
FNDA:0,_RNCNvMNtNtCs4I6j3VtXKYU_20rain_tracker_service2db16gauge_repositoryNtB4_15GaugeRepository16upsert_summaries0B8_
FNDA:0,_RNCNvMNtNtCs4I6j3VtXKYU_20rain_tracker_service2db16gauge_repositoryNtB4_15GaugeRepository17find_paginated_tx0B8_
FNDA:0,_RNCNvMNtNtCs4I6j3VtXKYU_20rain_tracker_service2db16gauge_repositoryNtB4_15GaugeRepository21upsert_gauge_metadata0B8_
FNDA:0,_RNCNvMNtNtCs4I6j3VtXKYU_20rain_tracker_service2db16gauge_repositoryNtB4_15GaugeRepository24upsert_gauge_metadata_tx0B8_
FNDA:0,_RNCNvMNtNtCs4I6j3VtXKYU_20rain_tracker_service2db16gauge_repositoryNtB4_15GaugeRepository5count0B8_
FNDA:0,_RNCNvMNtNtCs4I6j3VtXKYU_20rain_tracker_service2db16gauge_repositoryNtB4_15GaugeRepository8count_tx0B8_
FNDA:0,_RNvMNtNtCs4I6j3VtXKYU_20rain_tracker_service2db16gauge_repositoryNtB2_15GaugeRepository10find_by_id
FNDA:0,_RNvMNtNtCs4I6j3VtXKYU_20rain_tracker_service2db16gauge_repositoryNtB2_15GaugeRepository12gauge_exists
FNDA:0,_RNvMNtNtCs4I6j3VtXKYU_20rain_tracker_service2db16gauge_repositoryNtB2_15GaugeRepository13find_by_id_tx
FNDA:0,_RNvMNtNtCs4I6j3VtXKYU_20rain_tracker_service2db16gauge_repositoryNtB2_15GaugeRepository14find_paginated
FNDA:0,_RNvMNtNtCs4I6j3VtXKYU_20rain_tracker_service2db16gauge_repositoryNtB2_15GaugeRepository15gauge_exists_tx
FNDA:0,_RNvMNtNtCs4I6j3VtXKYU_20rain_tracker_service2db16gauge_repositoryNtB2_15GaugeRepository16upsert_summaries
FNDA:0,_RNvMNtNtCs4I6j3VtXKYU_20rain_tracker_service2db16gauge_repositoryNtB2_15GaugeRepository17find_paginated_tx
FNDA:0,_RNvMNtNtCs4I6j3VtXKYU_20rain_tracker_service2db16gauge_repositoryNtB2_15GaugeRepository21upsert_gauge_metadata
FNDA:0,_RNvMNtNtCs4I6j3VtXKYU_20rain_tracker_service2db16gauge_repositoryNtB2_15GaugeRepository24upsert_gauge_metadata_tx
FNDA:0,_RNvMNtNtCs4I6j3VtXKYU_20rain_tracker_service2db16gauge_repositoryNtB2_15GaugeRepository3new
FNDA:0,_RNvMNtNtCs4I6j3VtXKYU_20rain_tracker_service2db16gauge_repositoryNtB2_15GaugeRepository5count
FNDA:0,_RNvMNtNtCs4I6j3VtXKYU_20rain_tracker_service2db16gauge_repositoryNtB2_15GaugeRepository8count_tx
FNF:24
FNH:24
DA:14,138
DA:15,138
DA:16,138
DA:19,14
DA:59,1
DA:60,1
DA:64,0
DA:66,1
DA:67,1
DA:75,14
DA:78,4
DA:84,4
DA:87,4
DA:88,4
DA:89,4
DA:90,4
DA:91,4
DA:113,4
DA:116,5
DA:141,5
DA:148,22
DA:219,22
DA:223,58
DA:232,58
DA:240,6
DA:241,6
DA:242,6
DA:243,6
DA:244,6
DA:314,6
DA:318,1
DA:319,1
DA:320,1
DA:321,1
DA:322,1
DA:347,1
DA:351,1
DA:352,1
DA:353,1
DA:354,1
DA:355,1
DA:364,1
DA:368,1
DA:374,1
DA:378,1
DA:379,1
DA:380,1
DA:381,1
DA:382,1
DA:383,1
DA:405,1
BRF:0
BRH:0
LF:62
LH:61
end_of_record
SF:/Users/terry/RustroverProjects/rain-tracker-service/src/db/monthly_rainfall_repository.rs
FN:49,_RNCNCNCNvMNtNtCs7iCqo0KpDVZ_20rain_tracker_service2db27monthly_rainfall_repositoryNtB8_25MonthlyRainfallRepository22upsert_monthly_summary00s4_0Bc_
FN:55,_RNCNCNCNvMNtNtCs7iCqo0KpDVZ_20rain_tracker_service2db27monthly_rainfall_repositoryNtB8_25MonthlyRainfallRepository22upsert_monthly_summary00s6_0Bc_
FN:206,_RNCNCNCNvMNtNtCs7iCqo0KpDVZ_20rain_tracker_service2db27monthly_rainfall_repositoryNtB8_25MonthlyRainfallRepository25upsert_monthly_summary_tx00s4_0Bc_
FN:212,_RNCNCNCNvMNtNtCs7iCqo0KpDVZ_20rain_tracker_service2db27monthly_rainfall_repositoryNtB8_25MonthlyRainfallRepository25upsert_monthly_summary_tx00s6_0Bc_
FN:26,_RNCNvMNtNtCs7iCqo0KpDVZ_20rain_tracker_service2db27monthly_rainfall_repositoryNtB4_25MonthlyRainfallRepository22upsert_monthly_summary0B8_
FN:184,_RNCNvMNtNtCs7iCqo0KpDVZ_20rain_tracker_service2db27monthly_rainfall_repositoryNtB4_25MonthlyRainfallRepository25upsert_monthly_summary_tx0B8_
FN:145,_RNCNvMNtNtCs7iCqo0KpDVZ_20rain_tracker_service2db27monthly_rainfall_repositoryNtB4_25MonthlyRainfallRepository27recalculate_monthly_summary0B8_
FN:260,_RNCNvMNtNtCs7iCqo0KpDVZ_20rain_tracker_service2db27monthly_rainfall_repositoryNtB4_25MonthlyRainfallRepository30get_summaries_by_date_range_tx0B8_
FN:298,_RNCNvMNtNtCs7iCqo0KpDVZ_20rain_tracker_service2db27monthly_rainfall_repositoryNtB4_25MonthlyRainfallRepository30recalculate_monthly_summary_tx0B8_
FN:105,_RNCNvMNtNtCs7iCqo0KpDVZ_20rain_tracker_service2db27monthly_rainfall_repositoryNtB4_25MonthlyRainfallRepository27get_summaries_by_date_range0B8_
FN:20,_RNvMNtNtCs7iCqo0KpDVZ_20rain_tracker_service2db27monthly_rainfall_repositoryNtB2_25MonthlyRainfallRepository22upsert_monthly_summary
FN:177,_RNvMNtNtCs7iCqo0KpDVZ_20rain_tracker_service2db27monthly_rainfall_repositoryNtB2_25MonthlyRainfallRepository25upsert_monthly_summary_tx
FN:100,_RNvMNtNtCs7iCqo0KpDVZ_20rain_tracker_service2db27monthly_rainfall_repositoryNtB2_25MonthlyRainfallRepository27get_summaries_by_date_range
FN:138,_RNvMNtNtCs7iCqo0KpDVZ_20rain_tracker_service2db27monthly_rainfall_repositoryNtB2_25MonthlyRainfallRepository27recalculate_monthly_summary
FN:254,_RNvMNtNtCs7iCqo0KpDVZ_20rain_tracker_service2db27monthly_rainfall_repositoryNtB2_25MonthlyRainfallRepository30get_summaries_by_date_range_tx
FN:290,_RNvMNtNtCs7iCqo0KpDVZ_20rain_tracker_service2db27monthly_rainfall_repositoryNtB2_25MonthlyRainfallRepository30recalculate_monthly_summary_tx
FN:13,_RNvMNtNtCs7iCqo0KpDVZ_20rain_tracker_service2db27monthly_rainfall_repositoryNtB2_25MonthlyRainfallRepository3new
FN:49,_RNCNCNCNvMNtNtCs7iCqo0KpDVZ_20rain_tracker_service2db27monthly_rainfall_repositoryNtB8_25MonthlyRainfallRepository22upsert_monthly_summary00s4_0Cs6zvS6A0gBSI_20api_integration_test
FN:55,_RNCNCNCNvMNtNtCs7iCqo0KpDVZ_20rain_tracker_service2db27monthly_rainfall_repositoryNtB8_25MonthlyRainfallRepository22upsert_monthly_summary00s6_0Cs6zvS6A0gBSI_20api_integration_test
FN:26,_RNCNvMNtNtCs7iCqo0KpDVZ_20rain_tracker_service2db27monthly_rainfall_repositoryNtB4_25MonthlyRainfallRepository22upsert_monthly_summary0Cs6zvS6A0gBSI_20api_integration_test
FN:145,_RNCNvMNtNtCs7iCqo0KpDVZ_20rain_tracker_service2db27monthly_rainfall_repositoryNtB4_25MonthlyRainfallRepository27recalculate_monthly_summary0Cs6zvS6A0gBSI_20api_integration_test
FN:49,_RNCNCNCNvMNtNtCs7iCqo0KpDVZ_20rain_tracker_service2db27monthly_rainfall_repositoryNtB8_25MonthlyRainfallRepository22upsert_monthly_summary00s4_0Cs3PAmBzODhhi_19error_handling_test
FN:55,_RNCNCNCNvMNtNtCs7iCqo0KpDVZ_20rain_tracker_service2db27monthly_rainfall_repositoryNtB8_25MonthlyRainfallRepository22upsert_monthly_summary00s6_0Cs3PAmBzODhhi_19error_handling_test
FN:26,_RNCNvMNtNtCs7iCqo0KpDVZ_20rain_tracker_service2db27monthly_rainfall_repositoryNtB4_25MonthlyRainfallRepository22upsert_monthly_summary0Cs3PAmBzODhhi_19error_handling_test
FN:145,_RNCNvMNtNtCs7iCqo0KpDVZ_20rain_tracker_service2db27monthly_rainfall_repositoryNtB4_25MonthlyRainfallRepository27recalculate_monthly_summary0Cs3PAmBzODhhi_19error_handling_test
FN:49,_RNCNCNCNvMNtNtCs7iCqo0KpDVZ_20rain_tracker_service2db27monthly_rainfall_repositoryNtB8_25MonthlyRainfallRepository22upsert_monthly_summary00s4_0CskhdQylLvBLq_24fopr_import_service_test
FN:55,_RNCNCNCNvMNtNtCs7iCqo0KpDVZ_20rain_tracker_service2db27monthly_rainfall_repositoryNtB8_25MonthlyRainfallRepository22upsert_monthly_summary00s6_0CskhdQylLvBLq_24fopr_import_service_test
FN:26,_RNCNvMNtNtCs7iCqo0KpDVZ_20rain_tracker_service2db27monthly_rainfall_repositoryNtB4_25MonthlyRainfallRepository22upsert_monthly_summary0CskhdQylLvBLq_24fopr_import_service_test
FN:145,_RNCNvMNtNtCs7iCqo0KpDVZ_20rain_tracker_service2db27monthly_rainfall_repositoryNtB4_25MonthlyRainfallRepository27recalculate_monthly_summary0CskhdQylLvBLq_24fopr_import_service_test
FN:49,_RNCNCNCNvMNtNtCs7iCqo0KpDVZ_20rain_tracker_service2db27monthly_rainfall_repositoryNtB8_25MonthlyRainfallRepository22upsert_monthly_summary00s4_0Cs30uj6WIuzt3_17historical_import
FN:55,_RNCNCNCNvMNtNtCs7iCqo0KpDVZ_20rain_tracker_service2db27monthly_rainfall_repositoryNtB8_25MonthlyRainfallRepository22upsert_monthly_summary00s6_0Cs30uj6WIuzt3_17historical_import
FN:26,_RNCNvMNtNtCs7iCqo0KpDVZ_20rain_tracker_service2db27monthly_rainfall_repositoryNtB4_25MonthlyRainfallRepository22upsert_monthly_summary0Cs30uj6WIuzt3_17historical_import
FN:145,_RNCNvMNtNtCs7iCqo0KpDVZ_20rain_tracker_service2db27monthly_rainfall_repositoryNtB4_25MonthlyRainfallRepository27recalculate_monthly_summary0Cs30uj6WIuzt3_17historical_import
FN:49,_RNCNCNCNvMNtNtCs7iCqo0KpDVZ_20rain_tracker_service2db27monthly_rainfall_repositoryNtB8_25MonthlyRainfallRepository22upsert_monthly_summary00s4_0CsfwmCgHvd3Ip_16integration_test
FN:55,_RNCNCNCNvMNtNtCs7iCqo0KpDVZ_20rain_tracker_service2db27monthly_rainfall_repositoryNtB8_25MonthlyRainfallRepository22upsert_monthly_summary00s6_0CsfwmCgHvd3Ip_16integration_test
FN:26,_RNCNvMNtNtCs7iCqo0KpDVZ_20rain_tracker_service2db27monthly_rainfall_repositoryNtB4_25MonthlyRainfallRepository22upsert_monthly_summary0CsfwmCgHvd3Ip_16integration_test
FN:145,_RNCNvMNtNtCs7iCqo0KpDVZ_20rain_tracker_service2db27monthly_rainfall_repositoryNtB4_25MonthlyRainfallRepository27recalculate_monthly_summary0CsfwmCgHvd3Ip_16integration_test
FN:49,_RNCNCNCNvMNtNtCs7iCqo0KpDVZ_20rain_tracker_service2db27monthly_rainfall_repositoryNtB8_25MonthlyRainfallRepository22upsert_monthly_summary00s4_0Cscezn5nv2BKM_32monthly_rainfall_repository_test
FN:55,_RNCNCNCNvMNtNtCs7iCqo0KpDVZ_20rain_tracker_service2db27monthly_rainfall_repositoryNtB8_25MonthlyRainfallRepository22upsert_monthly_summary00s6_0Cscezn5nv2BKM_32monthly_rainfall_repository_test
FN:206,_RNCNCNCNvMNtNtCs7iCqo0KpDVZ_20rain_tracker_service2db27monthly_rainfall_repositoryNtB8_25MonthlyRainfallRepository25upsert_monthly_summary_tx00s4_0Cscezn5nv2BKM_32monthly_rainfall_repository_test
FN:212,_RNCNCNCNvMNtNtCs7iCqo0KpDVZ_20rain_tracker_service2db27monthly_rainfall_repositoryNtB8_25MonthlyRainfallRepository25upsert_monthly_summary_tx00s6_0Cscezn5nv2BKM_32monthly_rainfall_repository_test
FN:26,_RNCNvMNtNtCs7iCqo0KpDVZ_20rain_tracker_service2db27monthly_rainfall_repositoryNtB4_25MonthlyRainfallRepository22upsert_monthly_summary0Cscezn5nv2BKM_32monthly_rainfall_repository_test
FN:184,_RNCNvMNtNtCs7iCqo0KpDVZ_20rain_tracker_service2db27monthly_rainfall_repositoryNtB4_25MonthlyRainfallRepository25upsert_monthly_summary_tx0Cscezn5nv2BKM_32monthly_rainfall_repository_test
FN:145,_RNCNvMNtNtCs7iCqo0KpDVZ_20rain_tracker_service2db27monthly_rainfall_repositoryNtB4_25MonthlyRainfallRepository27recalculate_monthly_summary0Cscezn5nv2BKM_32monthly_rainfall_repository_test
FN:260,_RNCNvMNtNtCs7iCqo0KpDVZ_20rain_tracker_service2db27monthly_rainfall_repositoryNtB4_25MonthlyRainfallRepository30get_summaries_by_date_range_tx0Cscezn5nv2BKM_32monthly_rainfall_repository_test
FN:298,_RNCNvMNtNtCs7iCqo0KpDVZ_20rain_tracker_service2db27monthly_rainfall_repositoryNtB4_25MonthlyRainfallRepository30recalculate_monthly_summary_tx0Cscezn5nv2BKM_32monthly_rainfall_repository_test
FN:49,_RNCNCNCNvMNtNtCs7iCqo0KpDVZ_20rain_tracker_service2db27monthly_rainfall_repositoryNtB8_25MonthlyRainfallRepository22upsert_monthly_summary00s4_0Csdpfhlhhwi2Y_20rain_tracker_service
FN:55,_RNCNCNCNvMNtNtCs7iCqo0KpDVZ_20rain_tracker_service2db27monthly_rainfall_repositoryNtB8_25MonthlyRainfallRepository22upsert_monthly_summary00s6_0Csdpfhlhhwi2Y_20rain_tracker_service
FN:26,_RNCNvMNtNtCs7iCqo0KpDVZ_20rain_tracker_service2db27monthly_rainfall_repositoryNtB4_25MonthlyRainfallRepository22upsert_monthly_summary0Csdpfhlhhwi2Y_20rain_tracker_service
FN:145,_RNCNvMNtNtCs7iCqo0KpDVZ_20rain_tracker_service2db27monthly_rainfall_repositoryNtB4_25MonthlyRainfallRepository27recalculate_monthly_summary0Csdpfhlhhwi2Y_20rain_tracker_service
FN:49,_RNCNCNCNvMNtNtCs4I6j3VtXKYU_20rain_tracker_service2db27monthly_rainfall_repositoryNtB8_25MonthlyRainfallRepository22upsert_monthly_summary00s4_0Bc_
FN:55,_RNCNCNCNvMNtNtCs4I6j3VtXKYU_20rain_tracker_service2db27monthly_rainfall_repositoryNtB8_25MonthlyRainfallRepository22upsert_monthly_summary00s6_0Bc_
FN:206,_RNCNCNCNvMNtNtCs4I6j3VtXKYU_20rain_tracker_service2db27monthly_rainfall_repositoryNtB8_25MonthlyRainfallRepository25upsert_monthly_summary_tx00s4_0Bc_
FN:212,_RNCNCNCNvMNtNtCs4I6j3VtXKYU_20rain_tracker_service2db27monthly_rainfall_repositoryNtB8_25MonthlyRainfallRepository25upsert_monthly_summary_tx00s6_0Bc_
FN:26,_RNCNvMNtNtCs4I6j3VtXKYU_20rain_tracker_service2db27monthly_rainfall_repositoryNtB4_25MonthlyRainfallRepository22upsert_monthly_summary0B8_
FN:184,_RNCNvMNtNtCs4I6j3VtXKYU_20rain_tracker_service2db27monthly_rainfall_repositoryNtB4_25MonthlyRainfallRepository25upsert_monthly_summary_tx0B8_
FN:105,_RNCNvMNtNtCs4I6j3VtXKYU_20rain_tracker_service2db27monthly_rainfall_repositoryNtB4_25MonthlyRainfallRepository27get_summaries_by_date_range0B8_
FN:145,_RNCNvMNtNtCs4I6j3VtXKYU_20rain_tracker_service2db27monthly_rainfall_repositoryNtB4_25MonthlyRainfallRepository27recalculate_monthly_summary0B8_
FN:260,_RNCNvMNtNtCs4I6j3VtXKYU_20rain_tracker_service2db27monthly_rainfall_repositoryNtB4_25MonthlyRainfallRepository30get_summaries_by_date_range_tx0B8_
FN:298,_RNCNvMNtNtCs4I6j3VtXKYU_20rain_tracker_service2db27monthly_rainfall_repositoryNtB4_25MonthlyRainfallRepository30recalculate_monthly_summary_tx0B8_
FN:20,_RNvMNtNtCs4I6j3VtXKYU_20rain_tracker_service2db27monthly_rainfall_repositoryNtB2_25MonthlyRainfallRepository22upsert_monthly_summary
FN:177,_RNvMNtNtCs4I6j3VtXKYU_20rain_tracker_service2db27monthly_rainfall_repositoryNtB2_25MonthlyRainfallRepository25upsert_monthly_summary_tx
FN:100,_RNvMNtNtCs4I6j3VtXKYU_20rain_tracker_service2db27monthly_rainfall_repositoryNtB2_25MonthlyRainfallRepository27get_summaries_by_date_range
FN:138,_RNvMNtNtCs4I6j3VtXKYU_20rain_tracker_service2db27monthly_rainfall_repositoryNtB2_25MonthlyRainfallRepository27recalculate_monthly_summary
FN:254,_RNvMNtNtCs4I6j3VtXKYU_20rain_tracker_service2db27monthly_rainfall_repositoryNtB2_25MonthlyRainfallRepository30get_summaries_by_date_range_tx
FN:290,_RNvMNtNtCs4I6j3VtXKYU_20rain_tracker_service2db27monthly_rainfall_repositoryNtB2_25MonthlyRainfallRepository30recalculate_monthly_summary_tx
FN:13,_RNvMNtNtCs4I6j3VtXKYU_20rain_tracker_service2db27monthly_rainfall_repositoryNtB2_25MonthlyRainfallRepository3new
FNDA:0,_RNCNCNCNvMNtNtCs7iCqo0KpDVZ_20rain_tracker_service2db27monthly_rainfall_repositoryNtB8_25MonthlyRainfallRepository22upsert_monthly_summary00s4_0Bc_
FNDA:0,_RNCNCNCNvMNtNtCs7iCqo0KpDVZ_20rain_tracker_service2db27monthly_rainfall_repositoryNtB8_25MonthlyRainfallRepository22upsert_monthly_summary00s6_0Bc_
FNDA:0,_RNCNCNCNvMNtNtCs7iCqo0KpDVZ_20rain_tracker_service2db27monthly_rainfall_repositoryNtB8_25MonthlyRainfallRepository25upsert_monthly_summary_tx00s4_0Bc_
FNDA:0,_RNCNCNCNvMNtNtCs7iCqo0KpDVZ_20rain_tracker_service2db27monthly_rainfall_repositoryNtB8_25MonthlyRainfallRepository25upsert_monthly_summary_tx00s6_0Bc_
FNDA:0,_RNCNvMNtNtCs7iCqo0KpDVZ_20rain_tracker_service2db27monthly_rainfall_repositoryNtB4_25MonthlyRainfallRepository22upsert_monthly_summary0B8_
FNDA:0,_RNCNvMNtNtCs7iCqo0KpDVZ_20rain_tracker_service2db27monthly_rainfall_repositoryNtB4_25MonthlyRainfallRepository25upsert_monthly_summary_tx0B8_
FNDA:0,_RNCNvMNtNtCs7iCqo0KpDVZ_20rain_tracker_service2db27monthly_rainfall_repositoryNtB4_25MonthlyRainfallRepository27recalculate_monthly_summary0B8_
FNDA:0,_RNCNvMNtNtCs7iCqo0KpDVZ_20rain_tracker_service2db27monthly_rainfall_repositoryNtB4_25MonthlyRainfallRepository30get_summaries_by_date_range_tx0B8_
FNDA:0,_RNCNvMNtNtCs7iCqo0KpDVZ_20rain_tracker_service2db27monthly_rainfall_repositoryNtB4_25MonthlyRainfallRepository30recalculate_monthly_summary_tx0B8_
FNDA:14,_RNCNvMNtNtCs7iCqo0KpDVZ_20rain_tracker_service2db27monthly_rainfall_repositoryNtB4_25MonthlyRainfallRepository27get_summaries_by_date_range0B8_
FNDA:25,_RNvMNtNtCs7iCqo0KpDVZ_20rain_tracker_service2db27monthly_rainfall_repositoryNtB2_25MonthlyRainfallRepository22upsert_monthly_summary
FNDA:2,_RNvMNtNtCs7iCqo0KpDVZ_20rain_tracker_service2db27monthly_rainfall_repositoryNtB2_25MonthlyRainfallRepository25upsert_monthly_summary_tx
FNDA:14,_RNvMNtNtCs7iCqo0KpDVZ_20rain_tracker_service2db27monthly_rainfall_repositoryNtB2_25MonthlyRainfallRepository27get_summaries_by_date_range
FNDA:16,_RNvMNtNtCs7iCqo0KpDVZ_20rain_tracker_service2db27monthly_rainfall_repositoryNtB2_25MonthlyRainfallRepository27recalculate_monthly_summary
FNDA:1,_RNvMNtNtCs7iCqo0KpDVZ_20rain_tracker_service2db27monthly_rainfall_repositoryNtB2_25MonthlyRainfallRepository30get_summaries_by_date_range_tx
FNDA:1,_RNvMNtNtCs7iCqo0KpDVZ_20rain_tracker_service2db27monthly_rainfall_repositoryNtB2_25MonthlyRainfallRepository30recalculate_monthly_summary_tx
FNDA:40,_RNvMNtNtCs7iCqo0KpDVZ_20rain_tracker_service2db27monthly_rainfall_repositoryNtB2_25MonthlyRainfallRepository3new
FNDA:0,_RNCNCNCNvMNtNtCs7iCqo0KpDVZ_20rain_tracker_service2db27monthly_rainfall_repositoryNtB8_25MonthlyRainfallRepository22upsert_monthly_summary00s4_0Cs6zvS6A0gBSI_20api_integration_test
FNDA:0,_RNCNCNCNvMNtNtCs7iCqo0KpDVZ_20rain_tracker_service2db27monthly_rainfall_repositoryNtB8_25MonthlyRainfallRepository22upsert_monthly_summary00s6_0Cs6zvS6A0gBSI_20api_integration_test
FNDA:6,_RNCNvMNtNtCs7iCqo0KpDVZ_20rain_tracker_service2db27monthly_rainfall_repositoryNtB4_25MonthlyRainfallRepository22upsert_monthly_summary0Cs6zvS6A0gBSI_20api_integration_test
FNDA:6,_RNCNvMNtNtCs7iCqo0KpDVZ_20rain_tracker_service2db27monthly_rainfall_repositoryNtB4_25MonthlyRainfallRepository27recalculate_monthly_summary0Cs6zvS6A0gBSI_20api_integration_test
FNDA:0,_RNCNCNCNvMNtNtCs7iCqo0KpDVZ_20rain_tracker_service2db27monthly_rainfall_repositoryNtB8_25MonthlyRainfallRepository22upsert_monthly_summary00s4_0Cs3PAmBzODhhi_19error_handling_test
FNDA:0,_RNCNCNCNvMNtNtCs7iCqo0KpDVZ_20rain_tracker_service2db27monthly_rainfall_repositoryNtB8_25MonthlyRainfallRepository22upsert_monthly_summary00s6_0Cs3PAmBzODhhi_19error_handling_test
FNDA:0,_RNCNvMNtNtCs7iCqo0KpDVZ_20rain_tracker_service2db27monthly_rainfall_repositoryNtB4_25MonthlyRainfallRepository22upsert_monthly_summary0Cs3PAmBzODhhi_19error_handling_test
FNDA:0,_RNCNvMNtNtCs7iCqo0KpDVZ_20rain_tracker_service2db27monthly_rainfall_repositoryNtB4_25MonthlyRainfallRepository27recalculate_monthly_summary0Cs3PAmBzODhhi_19error_handling_test
FNDA:0,_RNCNCNCNvMNtNtCs7iCqo0KpDVZ_20rain_tracker_service2db27monthly_rainfall_repositoryNtB8_25MonthlyRainfallRepository22upsert_monthly_summary00s4_0CskhdQylLvBLq_24fopr_import_service_test
FNDA:0,_RNCNCNCNvMNtNtCs7iCqo0KpDVZ_20rain_tracker_service2db27monthly_rainfall_repositoryNtB8_25MonthlyRainfallRepository22upsert_monthly_summary00s6_0CskhdQylLvBLq_24fopr_import_service_test
FNDA:0,_RNCNvMNtNtCs7iCqo0KpDVZ_20rain_tracker_service2db27monthly_rainfall_repositoryNtB4_25MonthlyRainfallRepository22upsert_monthly_summary0CskhdQylLvBLq_24fopr_import_service_test
FNDA:0,_RNCNvMNtNtCs7iCqo0KpDVZ_20rain_tracker_service2db27monthly_rainfall_repositoryNtB4_25MonthlyRainfallRepository27recalculate_monthly_summary0CskhdQylLvBLq_24fopr_import_service_test
FNDA:0,_RNCNCNCNvMNtNtCs7iCqo0KpDVZ_20rain_tracker_service2db27monthly_rainfall_repositoryNtB8_25MonthlyRainfallRepository22upsert_monthly_summary00s4_0Cs30uj6WIuzt3_17historical_import
FNDA:0,_RNCNCNCNvMNtNtCs7iCqo0KpDVZ_20rain_tracker_service2db27monthly_rainfall_repositoryNtB8_25MonthlyRainfallRepository22upsert_monthly_summary00s6_0Cs30uj6WIuzt3_17historical_import
FNDA:0,_RNCNvMNtNtCs7iCqo0KpDVZ_20rain_tracker_service2db27monthly_rainfall_repositoryNtB4_25MonthlyRainfallRepository22upsert_monthly_summary0Cs30uj6WIuzt3_17historical_import
FNDA:0,_RNCNvMNtNtCs7iCqo0KpDVZ_20rain_tracker_service2db27monthly_rainfall_repositoryNtB4_25MonthlyRainfallRepository27recalculate_monthly_summary0Cs30uj6WIuzt3_17historical_import
FNDA:0,_RNCNCNCNvMNtNtCs7iCqo0KpDVZ_20rain_tracker_service2db27monthly_rainfall_repositoryNtB8_25MonthlyRainfallRepository22upsert_monthly_summary00s4_0CsfwmCgHvd3Ip_16integration_test
FNDA:0,_RNCNCNCNvMNtNtCs7iCqo0KpDVZ_20rain_tracker_service2db27monthly_rainfall_repositoryNtB8_25MonthlyRainfallRepository22upsert_monthly_summary00s6_0CsfwmCgHvd3Ip_16integration_test
FNDA:9,_RNCNvMNtNtCs7iCqo0KpDVZ_20rain_tracker_service2db27monthly_rainfall_repositoryNtB4_25MonthlyRainfallRepository22upsert_monthly_summary0CsfwmCgHvd3Ip_16integration_test
FNDA:9,_RNCNvMNtNtCs7iCqo0KpDVZ_20rain_tracker_service2db27monthly_rainfall_repositoryNtB4_25MonthlyRainfallRepository27recalculate_monthly_summary0CsfwmCgHvd3Ip_16integration_test
FNDA:18,_RNCNCNCNvMNtNtCs7iCqo0KpDVZ_20rain_tracker_service2db27monthly_rainfall_repositoryNtB8_25MonthlyRainfallRepository22upsert_monthly_summary00s4_0Cscezn5nv2BKM_32monthly_rainfall_repository_test
FNDA:18,_RNCNCNCNvMNtNtCs7iCqo0KpDVZ_20rain_tracker_service2db27monthly_rainfall_repositoryNtB8_25MonthlyRainfallRepository22upsert_monthly_summary00s6_0Cscezn5nv2BKM_32monthly_rainfall_repository_test
FNDA:4,_RNCNCNCNvMNtNtCs7iCqo0KpDVZ_20rain_tracker_service2db27monthly_rainfall_repositoryNtB8_25MonthlyRainfallRepository25upsert_monthly_summary_tx00s4_0Cscezn5nv2BKM_32monthly_rainfall_repository_test
FNDA:4,_RNCNCNCNvMNtNtCs7iCqo0KpDVZ_20rain_tracker_service2db27monthly_rainfall_repositoryNtB8_25MonthlyRainfallRepository25upsert_monthly_summary_tx00s6_0Cscezn5nv2BKM_32monthly_rainfall_repository_test
FNDA:10,_RNCNvMNtNtCs7iCqo0KpDVZ_20rain_tracker_service2db27monthly_rainfall_repositoryNtB4_25MonthlyRainfallRepository22upsert_monthly_summary0Cscezn5nv2BKM_32monthly_rainfall_repository_test
FNDA:2,_RNCNvMNtNtCs7iCqo0KpDVZ_20rain_tracker_service2db27monthly_rainfall_repositoryNtB4_25MonthlyRainfallRepository25upsert_monthly_summary_tx0Cscezn5nv2BKM_32monthly_rainfall_repository_test
FNDA:1,_RNCNvMNtNtCs7iCqo0KpDVZ_20rain_tracker_service2db27monthly_rainfall_repositoryNtB4_25MonthlyRainfallRepository27recalculate_monthly_summary0Cscezn5nv2BKM_32monthly_rainfall_repository_test
FNDA:1,_RNCNvMNtNtCs7iCqo0KpDVZ_20rain_tracker_service2db27monthly_rainfall_repositoryNtB4_25MonthlyRainfallRepository30get_summaries_by_date_range_tx0Cscezn5nv2BKM_32monthly_rainfall_repository_test
FNDA:1,_RNCNvMNtNtCs7iCqo0KpDVZ_20rain_tracker_service2db27monthly_rainfall_repositoryNtB4_25MonthlyRainfallRepository30recalculate_monthly_summary_tx0Cscezn5nv2BKM_32monthly_rainfall_repository_test
FNDA:0,_RNCNCNCNvMNtNtCs7iCqo0KpDVZ_20rain_tracker_service2db27monthly_rainfall_repositoryNtB8_25MonthlyRainfallRepository22upsert_monthly_summary00s4_0Csdpfhlhhwi2Y_20rain_tracker_service
FNDA:0,_RNCNCNCNvMNtNtCs7iCqo0KpDVZ_20rain_tracker_service2db27monthly_rainfall_repositoryNtB8_25MonthlyRainfallRepository22upsert_monthly_summary00s6_0Csdpfhlhhwi2Y_20rain_tracker_service
FNDA:0,_RNCNvMNtNtCs7iCqo0KpDVZ_20rain_tracker_service2db27monthly_rainfall_repositoryNtB4_25MonthlyRainfallRepository22upsert_monthly_summary0Csdpfhlhhwi2Y_20rain_tracker_service
FNDA:0,_RNCNvMNtNtCs7iCqo0KpDVZ_20rain_tracker_service2db27monthly_rainfall_repositoryNtB4_25MonthlyRainfallRepository27recalculate_monthly_summary0Csdpfhlhhwi2Y_20rain_tracker_service
FNDA:0,_RNCNCNCNvMNtNtCs4I6j3VtXKYU_20rain_tracker_service2db27monthly_rainfall_repositoryNtB8_25MonthlyRainfallRepository22upsert_monthly_summary00s4_0Bc_
FNDA:0,_RNCNCNCNvMNtNtCs4I6j3VtXKYU_20rain_tracker_service2db27monthly_rainfall_repositoryNtB8_25MonthlyRainfallRepository22upsert_monthly_summary00s6_0Bc_
FNDA:0,_RNCNCNCNvMNtNtCs4I6j3VtXKYU_20rain_tracker_service2db27monthly_rainfall_repositoryNtB8_25MonthlyRainfallRepository25upsert_monthly_summary_tx00s4_0Bc_
FNDA:0,_RNCNCNCNvMNtNtCs4I6j3VtXKYU_20rain_tracker_service2db27monthly_rainfall_repositoryNtB8_25MonthlyRainfallRepository25upsert_monthly_summary_tx00s6_0Bc_
FNDA:0,_RNCNvMNtNtCs4I6j3VtXKYU_20rain_tracker_service2db27monthly_rainfall_repositoryNtB4_25MonthlyRainfallRepository22upsert_monthly_summary0B8_
FNDA:0,_RNCNvMNtNtCs4I6j3VtXKYU_20rain_tracker_service2db27monthly_rainfall_repositoryNtB4_25MonthlyRainfallRepository25upsert_monthly_summary_tx0B8_
FNDA:0,_RNCNvMNtNtCs4I6j3VtXKYU_20rain_tracker_service2db27monthly_rainfall_repositoryNtB4_25MonthlyRainfallRepository27get_summaries_by_date_range0B8_
FNDA:0,_RNCNvMNtNtCs4I6j3VtXKYU_20rain_tracker_service2db27monthly_rainfall_repositoryNtB4_25MonthlyRainfallRepository27recalculate_monthly_summary0B8_
FNDA:0,_RNCNvMNtNtCs4I6j3VtXKYU_20rain_tracker_service2db27monthly_rainfall_repositoryNtB4_25MonthlyRainfallRepository30get_summaries_by_date_range_tx0B8_
FNDA:0,_RNCNvMNtNtCs4I6j3VtXKYU_20rain_tracker_service2db27monthly_rainfall_repositoryNtB4_25MonthlyRainfallRepository30recalculate_monthly_summary_tx0B8_
FNDA:0,_RNvMNtNtCs4I6j3VtXKYU_20rain_tracker_service2db27monthly_rainfall_repositoryNtB2_25MonthlyRainfallRepository22upsert_monthly_summary
FNDA:0,_RNvMNtNtCs4I6j3VtXKYU_20rain_tracker_service2db27monthly_rainfall_repositoryNtB2_25MonthlyRainfallRepository25upsert_monthly_summary_tx
FNDA:0,_RNvMNtNtCs4I6j3VtXKYU_20rain_tracker_service2db27monthly_rainfall_repositoryNtB2_25MonthlyRainfallRepository27get_summaries_by_date_range
FNDA:0,_RNvMNtNtCs4I6j3VtXKYU_20rain_tracker_service2db27monthly_rainfall_repositoryNtB2_25MonthlyRainfallRepository27recalculate_monthly_summary
FNDA:0,_RNvMNtNtCs4I6j3VtXKYU_20rain_tracker_service2db27monthly_rainfall_repositoryNtB2_25MonthlyRainfallRepository30get_summaries_by_date_range_tx
FNDA:0,_RNvMNtNtCs4I6j3VtXKYU_20rain_tracker_service2db27monthly_rainfall_repositoryNtB2_25MonthlyRainfallRepository30recalculate_monthly_summary_tx
FNDA:0,_RNvMNtNtCs4I6j3VtXKYU_20rain_tracker_service2db27monthly_rainfall_repositoryNtB2_25MonthlyRainfallRepository3new
FNF:17
FNH:17
DA:13,40
DA:14,40
DA:15,40
DA:20,25
DA:21,25
DA:22,25
DA:23,25
DA:24,25
DA:25,25
DA:26,25
DA:49,18
DA:55,18
DA:93,25
DA:100,14
DA:101,14
DA:102,14
DA:103,14
DA:104,14
DA:105,14
DA:131,14
DA:138,16
DA:139,16
DA:140,16
DA:141,16
DA:142,16
DA:143,16
DA:144,16
DA:145,16
DA:169,16
DA:177,2
DA:178,2
DA:179,2
DA:180,2
DA:181,2
DA:182,2
DA:183,2
DA:184,2
DA:206,4
DA:212,4
DA:250,2
DA:254,1
DA:255,1
DA:256,1
DA:257,1
DA:258,1
DA:259,1
DA:260,1
DA:286,1
DA:290,1
DA:291,1
DA:292,1
DA:293,1
DA:294,1
DA:295,1
DA:296,1
DA:297,1
DA:298,1
DA:322,1
BRF:0
BRH:0
LF:64
LH:64
end_of_record
SF:/Users/terry/RustroverProjects/rain-tracker-service/src/db/reading_repository.rs
FN:84,_RNCNCNCNvMNtNtCs7iCqo0KpDVZ_20rain_tracker_service2db18reading_repositoryNtB8_17ReadingRepository31bulk_insert_historical_readings000Bc_
FN:217,_RNCNCNCNvMNtNtCs7iCqo0KpDVZ_20rain_tracker_service2db18reading_repositoryNtB8_17ReadingRepository34bulk_insert_historical_readings_tx000Bc_
FN:300,_RNCNvMNtNtCs7iCqo0KpDVZ_20rain_tracker_service2db18reading_repositoryNtB4_17ReadingRepository14find_latest_tx0B8_
FN:21,_RNCNvMNtNtCs7iCqo0KpDVZ_20rain_tracker_service2db18reading_repositoryNtB4_17ReadingRepository15insert_readings0B8_
FN:268,_RNCNvMNtNtCs7iCqo0KpDVZ_20rain_tracker_service2db18reading_repositoryNtB4_17ReadingRepository21find_by_date_range_tx0B8_
FN:71,_RNCNvMNtNtCs7iCqo0KpDVZ_20rain_tracker_service2db18reading_repositoryNtB4_17ReadingRepository31bulk_insert_historical_readings0B8_
FN:204,_RNCNvMNtNtCs7iCqo0KpDVZ_20rain_tracker_service2db18reading_repositoryNtB4_17ReadingRepository34bulk_insert_historical_readings_tx0B8_
FN:164,_RNCNvMNtNtCs7iCqo0KpDVZ_20rain_tracker_service2db18reading_repositoryNtB4_17ReadingRepository11find_latest0B8_
FN:136,_RNCNvMNtNtCs7iCqo0KpDVZ_20rain_tracker_service2db18reading_repositoryNtB4_17ReadingRepository18find_by_date_range0B8_
FN:164,_RNvMNtNtCs7iCqo0KpDVZ_20rain_tracker_service2db18reading_repositoryNtB2_17ReadingRepository11find_latest
FN:296,_RNvMNtNtCs7iCqo0KpDVZ_20rain_tracker_service2db18reading_repositoryNtB2_17ReadingRepository14find_latest_tx
FN:21,_RNvMNtNtCs7iCqo0KpDVZ_20rain_tracker_service2db18reading_repositoryNtB2_17ReadingRepository15insert_readings
FN:131,_RNvMNtNtCs7iCqo0KpDVZ_20rain_tracker_service2db18reading_repositoryNtB2_17ReadingRepository18find_by_date_range
FN:262,_RNvMNtNtCs7iCqo0KpDVZ_20rain_tracker_service2db18reading_repositoryNtB2_17ReadingRepository21find_by_date_range_tx
FN:66,_RNvMNtNtCs7iCqo0KpDVZ_20rain_tracker_service2db18reading_repositoryNtB2_17ReadingRepository31bulk_insert_historical_readings
FN:198,_RNvMNtNtCs7iCqo0KpDVZ_20rain_tracker_service2db18reading_repositoryNtB2_17ReadingRepository34bulk_insert_historical_readings_tx
FN:15,_RNvMNtNtCs7iCqo0KpDVZ_20rain_tracker_service2db18reading_repositoryNtB2_17ReadingRepository3new
FN:84,_RNCNCNCNvMNtNtCs7iCqo0KpDVZ_20rain_tracker_service2db18reading_repositoryNtB8_17ReadingRepository31bulk_insert_historical_readings000Cs3PAmBzODhhi_19error_handling_test
FN:71,_RNCNvMNtNtCs7iCqo0KpDVZ_20rain_tracker_service2db18reading_repositoryNtB4_17ReadingRepository31bulk_insert_historical_readings0Cs3PAmBzODhhi_19error_handling_test
FN:84,_RNCNCNCNvMNtNtCs7iCqo0KpDVZ_20rain_tracker_service2db18reading_repositoryNtB8_17ReadingRepository31bulk_insert_historical_readings000CskhdQylLvBLq_24fopr_import_service_test
FN:71,_RNCNvMNtNtCs7iCqo0KpDVZ_20rain_tracker_service2db18reading_repositoryNtB4_17ReadingRepository31bulk_insert_historical_readings0CskhdQylLvBLq_24fopr_import_service_test
FN:84,_RNCNCNCNvMNtNtCs7iCqo0KpDVZ_20rain_tracker_service2db18reading_repositoryNtB8_17ReadingRepository31bulk_insert_historical_readings000Cscezn5nv2BKM_32monthly_rainfall_repository_test
FN:71,_RNCNvMNtNtCs7iCqo0KpDVZ_20rain_tracker_service2db18reading_repositoryNtB4_17ReadingRepository31bulk_insert_historical_readings0Cscezn5nv2BKM_32monthly_rainfall_repository_test
FN:84,_RNCNCNCNvMNtNtCs7iCqo0KpDVZ_20rain_tracker_service2db18reading_repositoryNtB8_17ReadingRepository31bulk_insert_historical_readings000Csdpfhlhhwi2Y_20rain_tracker_service
FN:21,_RNCNvMNtNtCs7iCqo0KpDVZ_20rain_tracker_service2db18reading_repositoryNtB4_17ReadingRepository15insert_readings0Csdpfhlhhwi2Y_20rain_tracker_service
FN:71,_RNCNvMNtNtCs7iCqo0KpDVZ_20rain_tracker_service2db18reading_repositoryNtB4_17ReadingRepository31bulk_insert_historical_readings0Csdpfhlhhwi2Y_20rain_tracker_service
FN:84,_RNCNCNCNvMNtNtCs4I6j3VtXKYU_20rain_tracker_service2db18reading_repositoryNtB8_17ReadingRepository31bulk_insert_historical_readings000Bc_
FN:217,_RNCNCNCNvMNtNtCs4I6j3VtXKYU_20rain_tracker_service2db18reading_repositoryNtB8_17ReadingRepository34bulk_insert_historical_readings_tx000Bc_
FN:164,_RNCNvMNtNtCs4I6j3VtXKYU_20rain_tracker_service2db18reading_repositoryNtB4_17ReadingRepository11find_latest0B8_
FN:300,_RNCNvMNtNtCs4I6j3VtXKYU_20rain_tracker_service2db18reading_repositoryNtB4_17ReadingRepository14find_latest_tx0B8_
FN:21,_RNCNvMNtNtCs4I6j3VtXKYU_20rain_tracker_service2db18reading_repositoryNtB4_17ReadingRepository15insert_readings0B8_
FN:136,_RNCNvMNtNtCs4I6j3VtXKYU_20rain_tracker_service2db18reading_repositoryNtB4_17ReadingRepository18find_by_date_range0B8_
FN:268,_RNCNvMNtNtCs4I6j3VtXKYU_20rain_tracker_service2db18reading_repositoryNtB4_17ReadingRepository21find_by_date_range_tx0B8_
FN:71,_RNCNvMNtNtCs4I6j3VtXKYU_20rain_tracker_service2db18reading_repositoryNtB4_17ReadingRepository31bulk_insert_historical_readings0B8_
FN:204,_RNCNvMNtNtCs4I6j3VtXKYU_20rain_tracker_service2db18reading_repositoryNtB4_17ReadingRepository34bulk_insert_historical_readings_tx0B8_
FN:164,_RNvMNtNtCs4I6j3VtXKYU_20rain_tracker_service2db18reading_repositoryNtB2_17ReadingRepository11find_latest
FN:296,_RNvMNtNtCs4I6j3VtXKYU_20rain_tracker_service2db18reading_repositoryNtB2_17ReadingRepository14find_latest_tx
FN:21,_RNvMNtNtCs4I6j3VtXKYU_20rain_tracker_service2db18reading_repositoryNtB2_17ReadingRepository15insert_readings
FN:131,_RNvMNtNtCs4I6j3VtXKYU_20rain_tracker_service2db18reading_repositoryNtB2_17ReadingRepository18find_by_date_range
FN:262,_RNvMNtNtCs4I6j3VtXKYU_20rain_tracker_service2db18reading_repositoryNtB2_17ReadingRepository21find_by_date_range_tx
FN:66,_RNvMNtNtCs4I6j3VtXKYU_20rain_tracker_service2db18reading_repositoryNtB2_17ReadingRepository31bulk_insert_historical_readings
FN:198,_RNvMNtNtCs4I6j3VtXKYU_20rain_tracker_service2db18reading_repositoryNtB2_17ReadingRepository34bulk_insert_historical_readings_tx
FN:15,_RNvMNtNtCs4I6j3VtXKYU_20rain_tracker_service2db18reading_repositoryNtB2_17ReadingRepository3new
FN:84,_RNCNCNCNvMNtNtCs7iCqo0KpDVZ_20rain_tracker_service2db18reading_repositoryNtB8_17ReadingRepository31bulk_insert_historical_readings000Cs7x8TlwllD1y_23reading_repository_test
FN:217,_RNCNCNCNvMNtNtCs7iCqo0KpDVZ_20rain_tracker_service2db18reading_repositoryNtB8_17ReadingRepository34bulk_insert_historical_readings_tx000Cs7x8TlwllD1y_23reading_repository_test
FN:300,_RNCNvMNtNtCs7iCqo0KpDVZ_20rain_tracker_service2db18reading_repositoryNtB4_17ReadingRepository14find_latest_tx0Cs7x8TlwllD1y_23reading_repository_test
FN:268,_RNCNvMNtNtCs7iCqo0KpDVZ_20rain_tracker_service2db18reading_repositoryNtB4_17ReadingRepository21find_by_date_range_tx0Cs7x8TlwllD1y_23reading_repository_test
FN:71,_RNCNvMNtNtCs7iCqo0KpDVZ_20rain_tracker_service2db18reading_repositoryNtB4_17ReadingRepository31bulk_insert_historical_readings0Cs7x8TlwllD1y_23reading_repository_test
FN:204,_RNCNvMNtNtCs7iCqo0KpDVZ_20rain_tracker_service2db18reading_repositoryNtB4_17ReadingRepository34bulk_insert_historical_readings_tx0Cs7x8TlwllD1y_23reading_repository_test
FNDA:0,_RNCNCNCNvMNtNtCs7iCqo0KpDVZ_20rain_tracker_service2db18reading_repositoryNtB8_17ReadingRepository31bulk_insert_historical_readings000Bc_
FNDA:0,_RNCNCNCNvMNtNtCs7iCqo0KpDVZ_20rain_tracker_service2db18reading_repositoryNtB8_17ReadingRepository34bulk_insert_historical_readings_tx000Bc_
FNDA:0,_RNCNvMNtNtCs7iCqo0KpDVZ_20rain_tracker_service2db18reading_repositoryNtB4_17ReadingRepository14find_latest_tx0B8_
FNDA:0,_RNCNvMNtNtCs7iCqo0KpDVZ_20rain_tracker_service2db18reading_repositoryNtB4_17ReadingRepository15insert_readings0B8_
FNDA:0,_RNCNvMNtNtCs7iCqo0KpDVZ_20rain_tracker_service2db18reading_repositoryNtB4_17ReadingRepository21find_by_date_range_tx0B8_
FNDA:0,_RNCNvMNtNtCs7iCqo0KpDVZ_20rain_tracker_service2db18reading_repositoryNtB4_17ReadingRepository31bulk_insert_historical_readings0B8_
FNDA:0,_RNCNvMNtNtCs7iCqo0KpDVZ_20rain_tracker_service2db18reading_repositoryNtB4_17ReadingRepository34bulk_insert_historical_readings_tx0B8_
FNDA:6,_RNCNvMNtNtCs7iCqo0KpDVZ_20rain_tracker_service2db18reading_repositoryNtB4_17ReadingRepository11find_latest0B8_
FNDA:16,_RNCNvMNtNtCs7iCqo0KpDVZ_20rain_tracker_service2db18reading_repositoryNtB4_17ReadingRepository18find_by_date_range0B8_
FNDA:6,_RNvMNtNtCs7iCqo0KpDVZ_20rain_tracker_service2db18reading_repositoryNtB2_17ReadingRepository11find_latest
FNDA:1,_RNvMNtNtCs7iCqo0KpDVZ_20rain_tracker_service2db18reading_repositoryNtB2_17ReadingRepository14find_latest_tx
FNDA:0,_RNvMNtNtCs7iCqo0KpDVZ_20rain_tracker_service2db18reading_repositoryNtB2_17ReadingRepository15insert_readings
FNDA:16,_RNvMNtNtCs7iCqo0KpDVZ_20rain_tracker_service2db18reading_repositoryNtB2_17ReadingRepository18find_by_date_range
FNDA:1,_RNvMNtNtCs7iCqo0KpDVZ_20rain_tracker_service2db18reading_repositoryNtB2_17ReadingRepository21find_by_date_range_tx
FNDA:17,_RNvMNtNtCs7iCqo0KpDVZ_20rain_tracker_service2db18reading_repositoryNtB2_17ReadingRepository31bulk_insert_historical_readings
FNDA:1,_RNvMNtNtCs7iCqo0KpDVZ_20rain_tracker_service2db18reading_repositoryNtB2_17ReadingRepository34bulk_insert_historical_readings_tx
FNDA:53,_RNvMNtNtCs7iCqo0KpDVZ_20rain_tracker_service2db18reading_repositoryNtB2_17ReadingRepository3new
FNDA:0,_RNCNCNCNvMNtNtCs7iCqo0KpDVZ_20rain_tracker_service2db18reading_repositoryNtB8_17ReadingRepository31bulk_insert_historical_readings000Cs3PAmBzODhhi_19error_handling_test
FNDA:0,_RNCNvMNtNtCs7iCqo0KpDVZ_20rain_tracker_service2db18reading_repositoryNtB4_17ReadingRepository31bulk_insert_historical_readings0Cs3PAmBzODhhi_19error_handling_test
FNDA:0,_RNCNCNCNvMNtNtCs7iCqo0KpDVZ_20rain_tracker_service2db18reading_repositoryNtB8_17ReadingRepository31bulk_insert_historical_readings000CskhdQylLvBLq_24fopr_import_service_test
FNDA:0,_RNCNvMNtNtCs7iCqo0KpDVZ_20rain_tracker_service2db18reading_repositoryNtB4_17ReadingRepository31bulk_insert_historical_readings0CskhdQylLvBLq_24fopr_import_service_test
FNDA:0,_RNCNCNCNvMNtNtCs7iCqo0KpDVZ_20rain_tracker_service2db18reading_repositoryNtB8_17ReadingRepository31bulk_insert_historical_readings000Cscezn5nv2BKM_32monthly_rainfall_repository_test
FNDA:10,_RNCNvMNtNtCs7iCqo0KpDVZ_20rain_tracker_service2db18reading_repositoryNtB4_17ReadingRepository31bulk_insert_historical_readings0Cscezn5nv2BKM_32monthly_rainfall_repository_test
FNDA:0,_RNCNCNCNvMNtNtCs7iCqo0KpDVZ_20rain_tracker_service2db18reading_repositoryNtB8_17ReadingRepository31bulk_insert_historical_readings000Csdpfhlhhwi2Y_20rain_tracker_service
FNDA:0,_RNCNvMNtNtCs7iCqo0KpDVZ_20rain_tracker_service2db18reading_repositoryNtB4_17ReadingRepository15insert_readings0Csdpfhlhhwi2Y_20rain_tracker_service
FNDA:0,_RNCNvMNtNtCs7iCqo0KpDVZ_20rain_tracker_service2db18reading_repositoryNtB4_17ReadingRepository31bulk_insert_historical_readings0Csdpfhlhhwi2Y_20rain_tracker_service
FNDA:0,_RNCNCNCNvMNtNtCs4I6j3VtXKYU_20rain_tracker_service2db18reading_repositoryNtB8_17ReadingRepository31bulk_insert_historical_readings000Bc_
FNDA:0,_RNCNCNCNvMNtNtCs4I6j3VtXKYU_20rain_tracker_service2db18reading_repositoryNtB8_17ReadingRepository34bulk_insert_historical_readings_tx000Bc_
FNDA:0,_RNCNvMNtNtCs4I6j3VtXKYU_20rain_tracker_service2db18reading_repositoryNtB4_17ReadingRepository11find_latest0B8_
FNDA:0,_RNCNvMNtNtCs4I6j3VtXKYU_20rain_tracker_service2db18reading_repositoryNtB4_17ReadingRepository14find_latest_tx0B8_
FNDA:0,_RNCNvMNtNtCs4I6j3VtXKYU_20rain_tracker_service2db18reading_repositoryNtB4_17ReadingRepository15insert_readings0B8_
FNDA:0,_RNCNvMNtNtCs4I6j3VtXKYU_20rain_tracker_service2db18reading_repositoryNtB4_17ReadingRepository18find_by_date_range0B8_
FNDA:0,_RNCNvMNtNtCs4I6j3VtXKYU_20rain_tracker_service2db18reading_repositoryNtB4_17ReadingRepository21find_by_date_range_tx0B8_
FNDA:0,_RNCNvMNtNtCs4I6j3VtXKYU_20rain_tracker_service2db18reading_repositoryNtB4_17ReadingRepository31bulk_insert_historical_readings0B8_
FNDA:0,_RNCNvMNtNtCs4I6j3VtXKYU_20rain_tracker_service2db18reading_repositoryNtB4_17ReadingRepository34bulk_insert_historical_readings_tx0B8_
FNDA:0,_RNvMNtNtCs4I6j3VtXKYU_20rain_tracker_service2db18reading_repositoryNtB2_17ReadingRepository11find_latest
FNDA:0,_RNvMNtNtCs4I6j3VtXKYU_20rain_tracker_service2db18reading_repositoryNtB2_17ReadingRepository14find_latest_tx
FNDA:0,_RNvMNtNtCs4I6j3VtXKYU_20rain_tracker_service2db18reading_repositoryNtB2_17ReadingRepository15insert_readings
FNDA:0,_RNvMNtNtCs4I6j3VtXKYU_20rain_tracker_service2db18reading_repositoryNtB2_17ReadingRepository18find_by_date_range
FNDA:0,_RNvMNtNtCs4I6j3VtXKYU_20rain_tracker_service2db18reading_repositoryNtB2_17ReadingRepository21find_by_date_range_tx
FNDA:0,_RNvMNtNtCs4I6j3VtXKYU_20rain_tracker_service2db18reading_repositoryNtB2_17ReadingRepository31bulk_insert_historical_readings
FNDA:0,_RNvMNtNtCs4I6j3VtXKYU_20rain_tracker_service2db18reading_repositoryNtB2_17ReadingRepository34bulk_insert_historical_readings_tx
FNDA:0,_RNvMNtNtCs4I6j3VtXKYU_20rain_tracker_service2db18reading_repositoryNtB2_17ReadingRepository3new
FNDA:2,_RNCNCNCNvMNtNtCs7iCqo0KpDVZ_20rain_tracker_service2db18reading_repositoryNtB8_17ReadingRepository31bulk_insert_historical_readings000Cs7x8TlwllD1y_23reading_repository_test
FNDA:0,_RNCNCNCNvMNtNtCs7iCqo0KpDVZ_20rain_tracker_service2db18reading_repositoryNtB8_17ReadingRepository34bulk_insert_historical_readings_tx000Cs7x8TlwllD1y_23reading_repository_test
FNDA:1,_RNCNvMNtNtCs7iCqo0KpDVZ_20rain_tracker_service2db18reading_repositoryNtB4_17ReadingRepository14find_latest_tx0Cs7x8TlwllD1y_23reading_repository_test
FNDA:1,_RNCNvMNtNtCs7iCqo0KpDVZ_20rain_tracker_service2db18reading_repositoryNtB4_17ReadingRepository21find_by_date_range_tx0Cs7x8TlwllD1y_23reading_repository_test
FNDA:7,_RNCNvMNtNtCs7iCqo0KpDVZ_20rain_tracker_service2db18reading_repositoryNtB4_17ReadingRepository31bulk_insert_historical_readings0Cs7x8TlwllD1y_23reading_repository_test
FNDA:1,_RNCNvMNtNtCs7iCqo0KpDVZ_20rain_tracker_service2db18reading_repositoryNtB4_17ReadingRepository34bulk_insert_historical_readings_tx0Cs7x8TlwllD1y_23reading_repository_test
FNF:17
FNH:14
DA:15,53
DA:16,53
DA:17,53
DA:21,0
DA:57,0
DA:66,17
DA:67,17
DA:68,17
DA:69,17
DA:70,17
DA:71,17
DA:84,2
DA:85,2
DA:86,2
DA:88,2
DA:126,17
DA:131,16
DA:132,16
DA:133,16
DA:134,16
DA:135,16
DA:136,16
DA:160,16
DA:164,6
DA:189,6
DA:198,1
DA:199,1
DA:200,1
DA:201,1
DA:202,1
DA:203,1
DA:204,1
DA:217,0
DA:218,0
DA:219,0
DA:221,0
DA:258,1
DA:262,1
DA:263,1
DA:264,1
DA:265,1
DA:266,1
DA:267,1
DA:268,1
DA:292,1
DA:296,1
DA:297,1
DA:298,1
DA:299,1
DA:300,1
DA:325,1
BRF:0
BRH:0
LF:58
LH:51
end_of_record
SF:/Users/terry/RustroverProjects/rain-tracker-service/src/fetcher.rs
FN:30,_RNCNvMNtCs7iCqo0KpDVZ_20rain_tracker_service7fetcherNtB4_16RainGaugeFetcher14fetch_readings0B6_
FN:42,_RNvMNtCs7iCqo0KpDVZ_20rain_tracker_service7fetcherNtB2_16RainGaugeFetcher10parse_html
FN:139,_RNvMNtCs7iCqo0KpDVZ_20rain_tracker_service7fetcherNtB2_16RainGaugeFetcher13parse_reading
FN:30,_RNvMNtCs7iCqo0KpDVZ_20rain_tracker_service7fetcherNtB2_16RainGaugeFetcher14fetch_readings
FN:22,_RNvMNtCs7iCqo0KpDVZ_20rain_tracker_service7fetcherNtB2_16RainGaugeFetcher3new
FN:50,_RNCNvMNtCs7iCqo0KpDVZ_20rain_tracker_service7fetcherNtB4_16RainGaugeFetcher10parse_html0B6_
FN:54,_RNCNvMNtCs7iCqo0KpDVZ_20rain_tracker_service7fetcherNtB4_16RainGaugeFetcher10parse_htmls_0B6_
FN:148,_RNCNvMNtCs7iCqo0KpDVZ_20rain_tracker_service7fetcherNtB4_16RainGaugeFetcher13parse_reading0B6_
FN:158,_RNCNvMNtCs7iCqo0KpDVZ_20rain_tracker_service7fetcherNtB4_16RainGaugeFetcher13parse_readings0_0B6_
FN:154,_RNCNvMNtCs7iCqo0KpDVZ_20rain_tracker_service7fetcherNtB4_16RainGaugeFetcher13parse_readings_0B6_
FN:30,_RNCNvMNtCs7iCqo0KpDVZ_20rain_tracker_service7fetcherNtB4_16RainGaugeFetcher14fetch_readings0Csdpfhlhhwi2Y_20rain_tracker_service
FN:30,_RNCNvMNtCs4I6j3VtXKYU_20rain_tracker_service7fetcherNtB4_16RainGaugeFetcher14fetch_readings0B6_
FN:30,_RNvMNtCs4I6j3VtXKYU_20rain_tracker_service7fetcherNtB2_16RainGaugeFetcher14fetch_readings
FN:273,_RNCNvNtNtCs4I6j3VtXKYU_20rain_tracker_service7fetcher5testss_32test_parse_html_with_real_sample0B7_
FN:42,_RNvMNtCs4I6j3VtXKYU_20rain_tracker_service7fetcherNtB2_16RainGaugeFetcher10parse_html
FN:139,_RNvMNtCs4I6j3VtXKYU_20rain_tracker_service7fetcherNtB2_16RainGaugeFetcher13parse_reading
FN:22,_RNvMNtCs4I6j3VtXKYU_20rain_tracker_service7fetcherNtB2_16RainGaugeFetcher3new
FN:50,_RNCNvMNtCs4I6j3VtXKYU_20rain_tracker_service7fetcherNtB4_16RainGaugeFetcher10parse_html0B6_
FN:54,_RNCNvMNtCs4I6j3VtXKYU_20rain_tracker_service7fetcherNtB4_16RainGaugeFetcher10parse_htmls_0B6_
FN:148,_RNCNvMNtCs4I6j3VtXKYU_20rain_tracker_service7fetcherNtB4_16RainGaugeFetcher13parse_reading0B6_
FN:158,_RNCNvMNtCs4I6j3VtXKYU_20rain_tracker_service7fetcherNtB4_16RainGaugeFetcher13parse_readings0_0B6_
FN:154,_RNCNvMNtCs4I6j3VtXKYU_20rain_tracker_service7fetcherNtB4_16RainGaugeFetcher13parse_readings_0B6_
FN:173,_RNvNtNtCs4I6j3VtXKYU_20rain_tracker_service7fetcher5testss_18test_parse_reading
FN:237,_RNvNtNtCs4I6j3VtXKYU_20rain_tracker_service7fetcher5testss_26test_parse_html_no_pre_tag
FN:184,_RNvNtNtCs4I6j3VtXKYU_20rain_tracker_service7fetcher5testss_28test_parse_html_with_pre_tag
FN:253,_RNvNtNtCs4I6j3VtXKYU_20rain_tracker_service7fetcher5testss_32test_parse_html_with_real_sample
FN:213,_RNvNtNtCs4I6j3VtXKYU_20rain_tracker_service7fetcher5testss_34test_parse_html_skips_header_lines
FNDA:0,_RNCNvMNtCs7iCqo0KpDVZ_20rain_tracker_service7fetcherNtB4_16RainGaugeFetcher14fetch_readings0B6_
FNDA:0,_RNvMNtCs7iCqo0KpDVZ_20rain_tracker_service7fetcherNtB2_16RainGaugeFetcher10parse_html
FNDA:0,_RNvMNtCs7iCqo0KpDVZ_20rain_tracker_service7fetcherNtB2_16RainGaugeFetcher13parse_reading
FNDA:0,_RNvMNtCs7iCqo0KpDVZ_20rain_tracker_service7fetcherNtB2_16RainGaugeFetcher14fetch_readings
FNDA:0,_RNvMNtCs7iCqo0KpDVZ_20rain_tracker_service7fetcherNtB2_16RainGaugeFetcher3new
FNDA:0,_RNCNvMNtCs7iCqo0KpDVZ_20rain_tracker_service7fetcherNtB4_16RainGaugeFetcher10parse_html0B6_
FNDA:0,_RNCNvMNtCs7iCqo0KpDVZ_20rain_tracker_service7fetcherNtB4_16RainGaugeFetcher10parse_htmls_0B6_
FNDA:0,_RNCNvMNtCs7iCqo0KpDVZ_20rain_tracker_service7fetcherNtB4_16RainGaugeFetcher13parse_reading0B6_
FNDA:0,_RNCNvMNtCs7iCqo0KpDVZ_20rain_tracker_service7fetcherNtB4_16RainGaugeFetcher13parse_readings0_0B6_
FNDA:0,_RNCNvMNtCs7iCqo0KpDVZ_20rain_tracker_service7fetcherNtB4_16RainGaugeFetcher13parse_readings_0B6_
FNDA:0,_RNCNvMNtCs7iCqo0KpDVZ_20rain_tracker_service7fetcherNtB4_16RainGaugeFetcher14fetch_readings0Csdpfhlhhwi2Y_20rain_tracker_service
FNDA:0,_RNCNvMNtCs4I6j3VtXKYU_20rain_tracker_service7fetcherNtB4_16RainGaugeFetcher14fetch_readings0B6_
FNDA:0,_RNvMNtCs4I6j3VtXKYU_20rain_tracker_service7fetcherNtB2_16RainGaugeFetcher14fetch_readings
FNDA:5,_RNCNvNtNtCs4I6j3VtXKYU_20rain_tracker_service7fetcher5testss_32test_parse_html_with_real_sample0B7_
FNDA:4,_RNvMNtCs4I6j3VtXKYU_20rain_tracker_service7fetcherNtB2_16RainGaugeFetcher10parse_html
FNDA:202,_RNvMNtCs4I6j3VtXKYU_20rain_tracker_service7fetcherNtB2_16RainGaugeFetcher13parse_reading
FNDA:5,_RNvMNtCs4I6j3VtXKYU_20rain_tracker_service7fetcherNtB2_16RainGaugeFetcher3new
FNDA:4,_RNCNvMNtCs4I6j3VtXKYU_20rain_tracker_service7fetcherNtB4_16RainGaugeFetcher10parse_html0B6_
FNDA:1,_RNCNvMNtCs4I6j3VtXKYU_20rain_tracker_service7fetcherNtB4_16RainGaugeFetcher10parse_htmls_0B6_
FNDA:0,_RNCNvMNtCs4I6j3VtXKYU_20rain_tracker_service7fetcherNtB4_16RainGaugeFetcher13parse_reading0B6_
FNDA:0,_RNCNvMNtCs4I6j3VtXKYU_20rain_tracker_service7fetcherNtB4_16RainGaugeFetcher13parse_readings0_0B6_
FNDA:0,_RNCNvMNtCs4I6j3VtXKYU_20rain_tracker_service7fetcherNtB4_16RainGaugeFetcher13parse_readings_0B6_
FNDA:1,_RNvNtNtCs4I6j3VtXKYU_20rain_tracker_service7fetcher5testss_18test_parse_reading
FNDA:1,_RNvNtNtCs4I6j3VtXKYU_20rain_tracker_service7fetcher5testss_26test_parse_html_no_pre_tag
FNDA:1,_RNvNtNtCs4I6j3VtXKYU_20rain_tracker_service7fetcher5testss_28test_parse_html_with_pre_tag
FNDA:1,_RNvNtNtCs4I6j3VtXKYU_20rain_tracker_service7fetcher5testss_32test_parse_html_with_real_sample
FNDA:1,_RNvNtNtCs4I6j3VtXKYU_20rain_tracker_service7fetcher5testss_34test_parse_html_skips_header_lines
FNF:16
FNH:11
DA:22,5
DA:23,5
DA:24,5
DA:25,5
DA:26,5
DA:27,5
DA:30,0
DA:39,0
DA:42,4
DA:43,4
DA:44,4
DA:45,4
DA:48,4
DA:49,4
DA:50,4
DA:51,4
DA:52,4
DA:53,4
DA:54,4
DA:55,1
DA:56,1
DA:57,0
DA:58,0
DA:60,1
DA:61,1
DA:63,3
DA:64,3
DA:66,3
DA:67,3
DA:68,3
DA:71,210
DA:72,210
DA:75,210
DA:76,207
DA:77,204
DA:79,9
DA:80,201
DA:82,201
DA:85,201
DA:87,201
DA:90,201
DA:91,201
DA:92,201
DA:93,201
DA:94,201
DA:96,201
DA:97,0
DA:101,201
DA:102,201
DA:103,201
DA:104,201
DA:106,0
DA:107,0
DA:108,0
DA:111,0
DA:115,0
DA:116,0
DA:118,0
DA:124,3
DA:125,0
DA:126,0
DA:129,3
DA:130,3
DA:131,0
DA:132,0
DA:136,3
DA:137,4
DA:139,202
DA:140,202
DA:141,202
DA:142,202
DA:143,202
DA:144,202
DA:145,202
DA:146,202
DA:147,202
DA:148,202
DA:150,202
DA:152,202
DA:153,202
DA:154,202
DA:156,202
DA:157,202
DA:158,202
DA:160,202
DA:161,202
DA:162,202
DA:163,202
DA:164,202
DA:165,202
DA:173,1
DA:174,1
DA:175,1
DA:176,1
DA:178,1
DA:179,1
DA:180,1
DA:181,1
DA:184,1
DA:185,1
DA:186,1
DA:187,1
DA:188,1
DA:189,1
DA:190,1
DA:191,1
DA:192,1
DA:193,1
DA:194,1
DA:195,1
DA:196,1
DA:197,1
DA:198,1
DA:200,1
DA:201,1
DA:202,1
DA:204,1
DA:205,1
DA:206,1
DA:207,1
DA:208,1
DA:209,1
DA:210,1
DA:213,1
DA:214,1
DA:215,1
DA:216,1
DA:217,1
DA:218,1
DA:219,1
DA:220,1
DA:221,1
DA:222,1
DA:223,1
DA:224,1
DA:225,1
DA:226,1
DA:228,1
DA:229,1
DA:230,1
DA:232,1
DA:233,1
DA:234,1
DA:237,1
DA:238,1
DA:239,1
DA:240,1
DA:241,1
DA:242,1
DA:243,1
DA:244,1
DA:246,1
DA:247,1
DA:248,1
DA:249,1
DA:250,1
DA:253,1
DA:254,1
DA:256,1
DA:257,1
DA:258,1
DA:260,1
DA:262,1
DA:263,1
DA:264,0
DA:265,0
DA:269,1
DA:270,1
DA:273,5
DA:274,1
DA:275,1
DA:276,0
DA:278,1
BRF:0
BRH:0
LF:181
LH:158
end_of_record
SF:/Users/terry/RustroverProjects/rain-tracker-service/src/fopr/daily_data_parser.rs
FN:44,_RINvMNtNtCs7iCqo0KpDVZ_20rain_tracker_service4fopr17daily_data_parserNtB3_19FoprDailyDataParser3newppEB7_
FN:56,_RNvMNtNtCs7iCqo0KpDVZ_20rain_tracker_service4fopr17daily_data_parserNtB2_19FoprDailyDataParser15parse_all_years
FN:121,_RNvMNtNtCs7iCqo0KpDVZ_20rain_tracker_service4fopr17daily_data_parserNtB2_19FoprDailyDataParser16parse_year_sheet
FN:226,_RNvMNtNtCs7iCqo0KpDVZ_20rain_tracker_service4fopr17daily_data_parserNtB2_19FoprDailyDataParser19get_available_years
FN:44,_RINvMNtNtCs7iCqo0KpDVZ_20rain_tracker_service4fopr17daily_data_parserNtB3_19FoprDailyDataParser3newRNtNtCsbWmXECNiIxc_5alloc6string6StringReECs3PAmBzODhhi_19error_handling_test
FN:44,_RINvMNtNtCs7iCqo0KpDVZ_20rain_tracker_service4fopr17daily_data_parserNtB3_19FoprDailyDataParser3newRNtNtCsbWmXECNiIxc_5alloc6string6StringReECskhdQylLvBLq_24fopr_import_service_test
FN:44,_RINvMNtNtCs7iCqo0KpDVZ_20rain_tracker_service4fopr17daily_data_parserNtB3_19FoprDailyDataParser3newRNtNtCsbWmXECNiIxc_5alloc6string6StringB1z_ECs30uj6WIuzt3_17historical_import
FN:44,_RINvMNtNtCs7iCqo0KpDVZ_20rain_tracker_service4fopr17daily_data_parserNtB3_19FoprDailyDataParser3newRNtNtCsbWmXECNiIxc_5alloc6string6StringReECsdpfhlhhwi2Y_20rain_tracker_service
FN:273,_RNvNtNtNtCs4I6j3VtXKYU_20rain_tracker_service4fopr17daily_data_parser5testss_20test_parse_all_years
FN:256,_RNvNtNtNtCs4I6j3VtXKYU_20rain_tracker_service4fopr17daily_data_parser5testss_24test_get_available_years
FN:56,_RNvMNtNtCs4I6j3VtXKYU_20rain_tracker_service4fopr17daily_data_parserNtB2_19FoprDailyDataParser15parse_all_years
FN:121,_RNvMNtNtCs4I6j3VtXKYU_20rain_tracker_service4fopr17daily_data_parserNtB2_19FoprDailyDataParser16parse_year_sheet
FN:226,_RNvMNtNtCs4I6j3VtXKYU_20rain_tracker_service4fopr17daily_data_parserNtB2_19FoprDailyDataParser19get_available_years
FN:44,_RINvMNtNtCs4I6j3VtXKYU_20rain_tracker_service4fopr17daily_data_parserNtB3_19FoprDailyDataParser3newReB1z_EB7_
FN:284,_RNCNvNtNtNtCs4I6j3VtXKYU_20rain_tracker_service4fopr17daily_data_parser5testss_20test_parse_all_yearss0_0B9_
FN:264,_RNCNvNtNtNtCs4I6j3VtXKYU_20rain_tracker_service4fopr17daily_data_parser5testss_24test_get_available_years0B9_
FNDA:0,_RINvMNtNtCs7iCqo0KpDVZ_20rain_tracker_service4fopr17daily_data_parserNtB3_19FoprDailyDataParser3newppEB7_
FNDA:0,_RNvMNtNtCs7iCqo0KpDVZ_20rain_tracker_service4fopr17daily_data_parserNtB2_19FoprDailyDataParser15parse_all_years
FNDA:0,_RNvMNtNtCs7iCqo0KpDVZ_20rain_tracker_service4fopr17daily_data_parserNtB2_19FoprDailyDataParser16parse_year_sheet
FNDA:0,_RNvMNtNtCs7iCqo0KpDVZ_20rain_tracker_service4fopr17daily_data_parserNtB2_19FoprDailyDataParser19get_available_years
FNDA:0,_RINvMNtNtCs7iCqo0KpDVZ_20rain_tracker_service4fopr17daily_data_parserNtB3_19FoprDailyDataParser3newRNtNtCsbWmXECNiIxc_5alloc6string6StringReECs3PAmBzODhhi_19error_handling_test
FNDA:0,_RINvMNtNtCs7iCqo0KpDVZ_20rain_tracker_service4fopr17daily_data_parserNtB3_19FoprDailyDataParser3newRNtNtCsbWmXECNiIxc_5alloc6string6StringReECskhdQylLvBLq_24fopr_import_service_test
FNDA:0,_RINvMNtNtCs7iCqo0KpDVZ_20rain_tracker_service4fopr17daily_data_parserNtB3_19FoprDailyDataParser3newRNtNtCsbWmXECNiIxc_5alloc6string6StringB1z_ECs30uj6WIuzt3_17historical_import
FNDA:0,_RINvMNtNtCs7iCqo0KpDVZ_20rain_tracker_service4fopr17daily_data_parserNtB3_19FoprDailyDataParser3newRNtNtCsbWmXECNiIxc_5alloc6string6StringReECsdpfhlhhwi2Y_20rain_tracker_service
FNDA:1,_RNvNtNtNtCs4I6j3VtXKYU_20rain_tracker_service4fopr17daily_data_parser5testss_20test_parse_all_years
FNDA:1,_RNvNtNtNtCs4I6j3VtXKYU_20rain_tracker_service4fopr17daily_data_parser5testss_24test_get_available_years
FNDA:1,_RNvMNtNtCs4I6j3VtXKYU_20rain_tracker_service4fopr17daily_data_parserNtB2_19FoprDailyDataParser15parse_all_years
FNDA:27,_RNvMNtNtCs4I6j3VtXKYU_20rain_tracker_service4fopr17daily_data_parserNtB2_19FoprDailyDataParser16parse_year_sheet
FNDA:1,_RNvMNtNtCs4I6j3VtXKYU_20rain_tracker_service4fopr17daily_data_parserNtB2_19FoprDailyDataParser19get_available_years
FNDA:2,_RINvMNtNtCs4I6j3VtXKYU_20rain_tracker_service4fopr17daily_data_parserNtB3_19FoprDailyDataParser3newReB1z_EB7_
FNDA:744,_RNCNvNtNtNtCs4I6j3VtXKYU_20rain_tracker_service4fopr17daily_data_parser5testss_20test_parse_all_yearss0_0B9_
FNDA:27,_RNCNvNtNtNtCs4I6j3VtXKYU_20rain_tracker_service4fopr17daily_data_parser5testss_24test_get_available_years0B9_
FNF:8
FNH:8
DA:44,2
DA:45,2
DA:46,2
DA:47,2
DA:48,2
DA:49,2
DA:56,1
DA:57,1
DA:60,1
DA:61,1
DA:62,0
DA:65,1
DA:66,1
DA:68,1
DA:69,1
DA:72,34
DA:74,33
DA:76,27
DA:77,27
DA:78,27
DA:80,27
DA:81,27
DA:82,27
DA:83,27
DA:85,0
DA:86,0
DA:91,0
DA:94,6
DA:95,0
DA:101,1
DA:102,0
DA:103,1
DA:105,1
DA:106,0
DA:108,0
DA:111,1
DA:112,1
DA:121,27
DA:122,27
DA:123,27
DA:124,27
DA:125,27
DA:126,27
DA:127,27
DA:128,27
DA:129,0
DA:132,27
DA:133,27
DA:135,27
DA:138,9909
DA:140,9909
DA:141,0
DA:142,0
DA:143,9862
DA:145,47
DA:146,47
DA:148,0
DA:149,0
DA:150,0
DA:153,0
DA:156,0
DA:157,0
DA:162,9862
DA:163,9707
DA:164,0
DA:165,0
DA:166,155
DA:167,155
DA:168,0
DA:171,155
DA:173,0
DA:177,9862
DA:178,0
DA:179,0
DA:182,0
DA:183,9862
DA:186,9862
DA:187,9862
DA:189,0
DA:190,0
DA:193,0
DA:198,9862
DA:199,9862
DA:200,0
DA:201,0
DA:202,9862
DA:206,9862
DA:207,9118
DA:208,744
DA:210,744
DA:211,744
DA:212,744
DA:213,744
DA:214,744
DA:215,744
DA:218,27
DA:220,27
DA:221,27
DA:226,1
DA:227,1
DA:228,1
DA:229,0
DA:232,1
DA:233,1
DA:235,34
DA:236,33
DA:237,27
DA:238,27
DA:239,27
DA:240,6
DA:243,1
DA:244,1
DA:246,1
DA:247,1
DA:256,1
DA:258,1
DA:260,1
DA:261,1
DA:262,1
DA:263,1
DA:264,27
DA:266,0
DA:267,0
DA:268,0
DA:270,1
DA:273,1
DA:275,1
DA:277,1
DA:278,1
DA:279,1
DA:280,1
DA:283,1
DA:284,744
DA:285,0
DA:289,1
DA:290,1
DA:291,1
DA:293,1
DA:294,1
DA:296,0
DA:297,0
DA:298,0
DA:300,1
BRF:0
BRH:0
LF:145
LH:108
end_of_record
SF:/Users/terry/RustroverProjects/rain-tracker-service/src/fopr/metadata_parser.rs
FN:300,_RINvNtNtCs7iCqo0KpDVZ_20rain_tracker_service4fopr15metadata_parser18add_frequency_statNCNvMB2_NtB2_13MetaStatsData20from_worksheet_ranges_0NCB1o_s0_0EB6_
FN:73,_RNCNCNvMNtNtCs7iCqo0KpDVZ_20rain_tracker_service4fopr15metadata_parserNtB6_13MetaStatsData20from_worksheet_range00Ba_
FN:94,_RNCNCNvMNtNtCs7iCqo0KpDVZ_20rain_tracker_service4fopr15metadata_parserNtB6_13MetaStatsData20from_worksheet_ranges0_00Ba_
FN:83,_RNCNCNvMNtNtCs7iCqo0KpDVZ_20rain_tracker_service4fopr15metadata_parserNtB6_13MetaStatsData20from_worksheet_ranges_00Ba_
FN:72,_RNCNvMNtNtCs7iCqo0KpDVZ_20rain_tracker_service4fopr15metadata_parserNtB4_13MetaStatsData20from_worksheet_range0B8_
FN:93,_RNCNvMNtNtCs7iCqo0KpDVZ_20rain_tracker_service4fopr15metadata_parserNtB4_13MetaStatsData20from_worksheet_ranges0_0B8_
FN:110,_RNCNvMNtNtCs7iCqo0KpDVZ_20rain_tracker_service4fopr15metadata_parserNtB4_13MetaStatsData20from_worksheet_ranges1_0B8_
FN:121,_RNCNvMNtNtCs7iCqo0KpDVZ_20rain_tracker_service4fopr15metadata_parserNtB4_13MetaStatsData20from_worksheet_ranges2_0B8_
FN:127,_RNCNvMNtNtCs7iCqo0KpDVZ_20rain_tracker_service4fopr15metadata_parserNtB4_13MetaStatsData20from_worksheet_ranges3_0B8_
FN:130,_RNCNvMNtNtCs7iCqo0KpDVZ_20rain_tracker_service4fopr15metadata_parserNtB4_13MetaStatsData20from_worksheet_ranges4_0B8_
FN:133,_RNCNvMNtNtCs7iCqo0KpDVZ_20rain_tracker_service4fopr15metadata_parserNtB4_13MetaStatsData20from_worksheet_ranges5_0B8_
FN:152,_RNCNvMNtNtCs7iCqo0KpDVZ_20rain_tracker_service4fopr15metadata_parserNtB4_13MetaStatsData20from_worksheet_ranges6_0B8_
FN:156,_RNCNvMNtNtCs7iCqo0KpDVZ_20rain_tracker_service4fopr15metadata_parserNtB4_13MetaStatsData20from_worksheet_ranges7_0B8_
FN:166,_RNCNvMNtNtCs7iCqo0KpDVZ_20rain_tracker_service4fopr15metadata_parserNtB4_13MetaStatsData20from_worksheet_ranges8_0B8_
FN:175,_RNCNvMNtNtCs7iCqo0KpDVZ_20rain_tracker_service4fopr15metadata_parserNtB4_13MetaStatsData20from_worksheet_ranges9_0B8_
FN:82,_RNCNvMNtNtCs7iCqo0KpDVZ_20rain_tracker_service4fopr15metadata_parserNtB4_13MetaStatsData20from_worksheet_ranges_0B8_
FN:181,_RNCNvMNtNtCs7iCqo0KpDVZ_20rain_tracker_service4fopr15metadata_parserNtB4_13MetaStatsData20from_worksheet_rangesa_0B8_
FN:184,_RNCNvMNtNtCs7iCqo0KpDVZ_20rain_tracker_service4fopr15metadata_parserNtB4_13MetaStatsData20from_worksheet_rangesb_0B8_
FN:187,_RNCNvMNtNtCs7iCqo0KpDVZ_20rain_tracker_service4fopr15metadata_parserNtB4_13MetaStatsData20from_worksheet_rangesc_0B8_
FN:296,_RNCNvNtNtCs7iCqo0KpDVZ_20rain_tracker_service4fopr15metadata_parser15parse_elevation0B7_
FN:254,_RNCNvNtNtCs7iCqo0KpDVZ_20rain_tracker_service4fopr15metadata_parser18extract_numeric_id0B7_
FN:226,_RNCNvNtNtCs7iCqo0KpDVZ_20rain_tracker_service4fopr15metadata_parser21parse_gage_id_history0B7_
FN:234,_RNCNvNtNtCs7iCqo0KpDVZ_20rain_tracker_service4fopr15metadata_parser21parse_gage_id_historys_0B7_
FN:270,_RNCNvNtNtCs7iCqo0KpDVZ_20rain_tracker_service4fopr15metadata_parser22excel_datetime_to_date0B7_
FN:286,_RNCNvNtNtCs7iCqo0KpDVZ_20rain_tracker_service4fopr15metadata_parser22extract_complete_years0B7_
FN:287,_RNCNvNtNtCs7iCqo0KpDVZ_20rain_tracker_service4fopr15metadata_parser22extract_complete_yearss_0B7_
FN:70,_RNvMNtNtCs7iCqo0KpDVZ_20rain_tracker_service4fopr15metadata_parserNtB2_13MetaStatsData20from_worksheet_range
FN:291,_RNvNtNtCs7iCqo0KpDVZ_20rain_tracker_service4fopr15metadata_parser15parse_elevation
FN:337,_RNvNtNtCs7iCqo0KpDVZ_20rain_tracker_service4fopr15metadata_parser17validate_latitude
FN:253,_RNvNtNtCs7iCqo0KpDVZ_20rain_tracker_service4fopr15metadata_parser18extract_numeric_id
FN:368,_RNvNtNtCs7iCqo0KpDVZ_20rain_tracker_service4fopr15metadata_parser18validate_elevation
FN:352,_RNvNtNtCs7iCqo0KpDVZ_20rain_tracker_service4fopr15metadata_parser18validate_longitude
FN:262,_RNvNtNtCs7iCqo0KpDVZ_20rain_tracker_service4fopr15metadata_parser20excel_serial_to_date
FN:225,_RNvNtNtCs7iCqo0KpDVZ_20rain_tracker_service4fopr15metadata_parser21parse_gage_id_history
FN:269,_RNvNtNtCs7iCqo0KpDVZ_20rain_tracker_service4fopr15metadata_parser22excel_datetime_to_date
FN:283,_RNvNtNtCs7iCqo0KpDVZ_20rain_tracker_service4fopr15metadata_parser22extract_complete_years
FN:379,_RNvNtNtCs7iCqo0KpDVZ_20rain_tracker_service4fopr15metadata_parser22validate_precipitation
FN:274,_RNvNtNtCs7iCqo0KpDVZ_20rain_tracker_service4fopr15metadata_parser27calculate_installation_date
FN:300,_RINvNtNtCs4I6j3VtXKYU_20rain_tracker_service4fopr15metadata_parser18add_frequency_statppEB6_
FN:73,_RNCNCNvMNtNtCs4I6j3VtXKYU_20rain_tracker_service4fopr15metadata_parserNtB6_13MetaStatsData20from_worksheet_range00Ba_
FN:94,_RNCNCNvMNtNtCs4I6j3VtXKYU_20rain_tracker_service4fopr15metadata_parserNtB6_13MetaStatsData20from_worksheet_ranges0_00Ba_
FN:83,_RNCNCNvMNtNtCs4I6j3VtXKYU_20rain_tracker_service4fopr15metadata_parserNtB6_13MetaStatsData20from_worksheet_ranges_00Ba_
FN:72,_RNCNvMNtNtCs4I6j3VtXKYU_20rain_tracker_service4fopr15metadata_parserNtB4_13MetaStatsData20from_worksheet_range0B8_
FN:93,_RNCNvMNtNtCs4I6j3VtXKYU_20rain_tracker_service4fopr15metadata_parserNtB4_13MetaStatsData20from_worksheet_ranges0_0B8_
FN:110,_RNCNvMNtNtCs4I6j3VtXKYU_20rain_tracker_service4fopr15metadata_parserNtB4_13MetaStatsData20from_worksheet_ranges1_0B8_
FN:121,_RNCNvMNtNtCs4I6j3VtXKYU_20rain_tracker_service4fopr15metadata_parserNtB4_13MetaStatsData20from_worksheet_ranges2_0B8_
FN:127,_RNCNvMNtNtCs4I6j3VtXKYU_20rain_tracker_service4fopr15metadata_parserNtB4_13MetaStatsData20from_worksheet_ranges3_0B8_
FN:130,_RNCNvMNtNtCs4I6j3VtXKYU_20rain_tracker_service4fopr15metadata_parserNtB4_13MetaStatsData20from_worksheet_ranges4_0B8_
FN:133,_RNCNvMNtNtCs4I6j3VtXKYU_20rain_tracker_service4fopr15metadata_parserNtB4_13MetaStatsData20from_worksheet_ranges5_0B8_
FN:152,_RNCNvMNtNtCs4I6j3VtXKYU_20rain_tracker_service4fopr15metadata_parserNtB4_13MetaStatsData20from_worksheet_ranges6_0B8_
FN:156,_RNCNvMNtNtCs4I6j3VtXKYU_20rain_tracker_service4fopr15metadata_parserNtB4_13MetaStatsData20from_worksheet_ranges7_0B8_
FN:166,_RNCNvMNtNtCs4I6j3VtXKYU_20rain_tracker_service4fopr15metadata_parserNtB4_13MetaStatsData20from_worksheet_ranges8_0B8_
FN:175,_RNCNvMNtNtCs4I6j3VtXKYU_20rain_tracker_service4fopr15metadata_parserNtB4_13MetaStatsData20from_worksheet_ranges9_0B8_
FN:82,_RNCNvMNtNtCs4I6j3VtXKYU_20rain_tracker_service4fopr15metadata_parserNtB4_13MetaStatsData20from_worksheet_ranges_0B8_
FN:181,_RNCNvMNtNtCs4I6j3VtXKYU_20rain_tracker_service4fopr15metadata_parserNtB4_13MetaStatsData20from_worksheet_rangesa_0B8_
FN:184,_RNCNvMNtNtCs4I6j3VtXKYU_20rain_tracker_service4fopr15metadata_parserNtB4_13MetaStatsData20from_worksheet_rangesb_0B8_
FN:187,_RNCNvMNtNtCs4I6j3VtXKYU_20rain_tracker_service4fopr15metadata_parserNtB4_13MetaStatsData20from_worksheet_rangesc_0B8_
FN:270,_RNCNvNtNtCs4I6j3VtXKYU_20rain_tracker_service4fopr15metadata_parser22excel_datetime_to_date0B7_
FN:70,_RNvMNtNtCs4I6j3VtXKYU_20rain_tracker_service4fopr15metadata_parserNtB2_13MetaStatsData20from_worksheet_range
FN:269,_RNvNtNtCs4I6j3VtXKYU_20rain_tracker_service4fopr15metadata_parser22excel_datetime_to_date
FN:296,_RNCNvNtNtCs4I6j3VtXKYU_20rain_tracker_service4fopr15metadata_parser15parse_elevation0B7_
FN:254,_RNCNvNtNtCs4I6j3VtXKYU_20rain_tracker_service4fopr15metadata_parser18extract_numeric_id0B7_
FN:226,_RNCNvNtNtCs4I6j3VtXKYU_20rain_tracker_service4fopr15metadata_parser21parse_gage_id_history0B7_
FN:234,_RNCNvNtNtCs4I6j3VtXKYU_20rain_tracker_service4fopr15metadata_parser21parse_gage_id_historys_0B7_
FN:286,_RNCNvNtNtCs4I6j3VtXKYU_20rain_tracker_service4fopr15metadata_parser22extract_complete_years0B7_
FN:287,_RNCNvNtNtCs4I6j3VtXKYU_20rain_tracker_service4fopr15metadata_parser22extract_complete_yearss_0B7_
FN:291,_RNvNtNtCs4I6j3VtXKYU_20rain_tracker_service4fopr15metadata_parser15parse_elevation
FN:337,_RNvNtNtCs4I6j3VtXKYU_20rain_tracker_service4fopr15metadata_parser17validate_latitude
FN:253,_RNvNtNtCs4I6j3VtXKYU_20rain_tracker_service4fopr15metadata_parser18extract_numeric_id
FN:368,_RNvNtNtCs4I6j3VtXKYU_20rain_tracker_service4fopr15metadata_parser18validate_elevation
FN:352,_RNvNtNtCs4I6j3VtXKYU_20rain_tracker_service4fopr15metadata_parser18validate_longitude
FN:262,_RNvNtNtCs4I6j3VtXKYU_20rain_tracker_service4fopr15metadata_parser20excel_serial_to_date
FN:225,_RNvNtNtCs4I6j3VtXKYU_20rain_tracker_service4fopr15metadata_parser21parse_gage_id_history
FN:283,_RNvNtNtCs4I6j3VtXKYU_20rain_tracker_service4fopr15metadata_parser22extract_complete_years
FN:379,_RNvNtNtCs4I6j3VtXKYU_20rain_tracker_service4fopr15metadata_parser22validate_precipitation
FN:274,_RNvNtNtCs4I6j3VtXKYU_20rain_tracker_service4fopr15metadata_parser27calculate_installation_date
FN:457,_RNvNtNtNtCs4I6j3VtXKYU_20rain_tracker_service4fopr15metadata_parser5testss_25test_excel_serial_to_date
FN:490,_RNvNtNtNtCs4I6j3VtXKYU_20rain_tracker_service4fopr15metadata_parser5testss_27test_extract_complete_years
FN:485,_RNvNtNtNtCs4I6j3VtXKYU_20rain_tracker_service4fopr15metadata_parser5testss_28test_parse_elevation_invalid
FN:508,_RNvNtNtNtCs4I6j3VtXKYU_20rain_tracker_service4fopr15metadata_parser5testss_28test_validate_latitude_valid
FN:435,_RNvNtNtNtCs4I6j3VtXKYU_20rain_tracker_service4fopr15metadata_parser5testss_29test_extract_numeric_id_clean
FN:480,_RNvNtNtNtCs4I6j3VtXKYU_20rain_tracker_service4fopr15metadata_parser5testss_29test_parse_elevation_no_comma
FN:538,_RNvNtNtNtCs4I6j3VtXKYU_20rain_tracker_service4fopr15metadata_parser5testss_29test_validate_elevation_valid
FN:523,_RNvNtNtNtCs4I6j3VtXKYU_20rain_tracker_service4fopr15metadata_parser5testss_29test_validate_longitude_valid
FN:452,_RNvNtNtNtCs4I6j3VtXKYU_20rain_tracker_service4fopr15metadata_parser5testss_30test_extract_numeric_id_4digit
FN:475,_RNvNtNtNtCs4I6j3VtXKYU_20rain_tracker_service4fopr15metadata_parser5testss_31test_parse_elevation_with_comma
FN:544,_RNvNtNtNtCs4I6j3VtXKYU_20rain_tracker_service4fopr15metadata_parser5testss_31test_validate_elevation_too_low
FN:569,_RNvNtNtNtCs4I6j3VtXKYU_20rain_tracker_service4fopr15metadata_parser5testss_32test_calculate_installation_date
FN:549,_RNvNtNtNtCs4I6j3VtXKYU_20rain_tracker_service4fopr15metadata_parser5testss_32test_validate_elevation_too_high
FN:554,_RNvNtNtNtCs4I6j3VtXKYU_20rain_tracker_service4fopr15metadata_parser5testss_33test_validate_precipitation_valid
FN:441,_RNvNtNtNtCs4I6j3VtXKYU_20rain_tracker_service4fopr15metadata_parser5testss_34test_extract_numeric_id_with_since
FN:502,_RNvNtNtNtCs4I6j3VtXKYU_20rain_tracker_service4fopr15metadata_parser5testss_36test_extract_complete_years_no_match
FN:513,_RNvNtNtNtCs4I6j3VtXKYU_20rain_tracker_service4fopr15metadata_parser5testss_36test_validate_latitude_too_far_north
FN:518,_RNvNtNtNtCs4I6j3VtXKYU_20rain_tracker_service4fopr15metadata_parser5testss_36test_validate_latitude_too_far_south
FN:528,_RNvNtNtNtCs4I6j3VtXKYU_20rain_tracker_service4fopr15metadata_parser5testss_36test_validate_longitude_too_far_east
FN:533,_RNvNtNtNtCs4I6j3VtXKYU_20rain_tracker_service4fopr15metadata_parser5testss_36test_validate_longitude_too_far_west
FN:559,_RNvNtNtNtCs4I6j3VtXKYU_20rain_tracker_service4fopr15metadata_parser5testss_36test_validate_precipitation_negative
FN:564,_RNvNtNtNtCs4I6j3VtXKYU_20rain_tracker_service4fopr15metadata_parser5testss_36test_validate_precipitation_too_high
FN:419,_RNvNtNtNtCs4I6j3VtXKYU_20rain_tracker_service4fopr15metadata_parser5testss_37test_parse_gage_id_history_with_since
FN:403,_RNvNtNtNtCs4I6j3VtXKYU_20rain_tracker_service4fopr15metadata_parser5testss_38test_parse_gage_id_history_no_previous
FN:395,_RNvNtNtNtCs4I6j3VtXKYU_20rain_tracker_service4fopr15metadata_parser5testss_40test_parse_gage_id_history_with_previous
FN:447,_RNvNtNtNtCs4I6j3VtXKYU_20rain_tracker_service4fopr15metadata_parser5testss_41test_extract_numeric_id_with_installation
FN:466,_RNvNtNtNtCs4I6j3VtXKYU_20rain_tracker_service4fopr15metadata_parser5testss_42test_excel_serial_to_date_water_year_start
FN:496,_RNvNtNtNtCs4I6j3VtXKYU_20rain_tracker_service4fopr15metadata_parser5testss_43test_extract_complete_years_different_count
FN:411,_RNvNtNtNtCs4I6j3VtXKYU_20rain_tracker_service4fopr15metadata_parser5testss_44test_parse_gage_id_history_multiple_previous
FN:427,_RNvNtNtNtCs4I6j3VtXKYU_20rain_tracker_service4fopr15metadata_parser5testss_44test_parse_gage_id_history_with_installation
FNDA:30,_RINvNtNtCs7iCqo0KpDVZ_20rain_tracker_service4fopr15metadata_parser18add_frequency_statNCNvMB2_NtB2_13MetaStatsData20from_worksheet_ranges_0NCB1o_s0_0EB6_
FNDA:55,_RNCNCNvMNtNtCs7iCqo0KpDVZ_20rain_tracker_service4fopr15metadata_parserNtB6_13MetaStatsData20from_worksheet_range00Ba_
FNDA:35,_RNCNCNvMNtNtCs7iCqo0KpDVZ_20rain_tracker_service4fopr15metadata_parserNtB6_13MetaStatsData20from_worksheet_ranges0_00Ba_
FNDA:100,_RNCNCNvMNtNtCs7iCqo0KpDVZ_20rain_tracker_service4fopr15metadata_parserNtB6_13MetaStatsData20from_worksheet_ranges_00Ba_
FNDA:55,_RNCNvMNtNtCs7iCqo0KpDVZ_20rain_tracker_service4fopr15metadata_parserNtB4_13MetaStatsData20from_worksheet_range0B8_
FNDA:35,_RNCNvMNtNtCs7iCqo0KpDVZ_20rain_tracker_service4fopr15metadata_parserNtB4_13MetaStatsData20from_worksheet_ranges0_0B8_
FNDA:0,_RNCNvMNtNtCs7iCqo0KpDVZ_20rain_tracker_service4fopr15metadata_parserNtB4_13MetaStatsData20from_worksheet_ranges1_0B8_
FNDA:5,_RNCNvMNtNtCs7iCqo0KpDVZ_20rain_tracker_service4fopr15metadata_parserNtB4_13MetaStatsData20from_worksheet_ranges2_0B8_
FNDA:5,_RNCNvMNtNtCs7iCqo0KpDVZ_20rain_tracker_service4fopr15metadata_parserNtB4_13MetaStatsData20from_worksheet_ranges3_0B8_
FNDA:0,_RNCNvMNtNtCs7iCqo0KpDVZ_20rain_tracker_service4fopr15metadata_parserNtB4_13MetaStatsData20from_worksheet_ranges4_0B8_
FNDA:5,_RNCNvMNtNtCs7iCqo0KpDVZ_20rain_tracker_service4fopr15metadata_parserNtB4_13MetaStatsData20from_worksheet_ranges5_0B8_
FNDA:5,_RNCNvMNtNtCs7iCqo0KpDVZ_20rain_tracker_service4fopr15metadata_parserNtB4_13MetaStatsData20from_worksheet_ranges6_0B8_
FNDA:5,_RNCNvMNtNtCs7iCqo0KpDVZ_20rain_tracker_service4fopr15metadata_parserNtB4_13MetaStatsData20from_worksheet_ranges7_0B8_
FNDA:5,_RNCNvMNtNtCs7iCqo0KpDVZ_20rain_tracker_service4fopr15metadata_parserNtB4_13MetaStatsData20from_worksheet_ranges8_0B8_
FNDA:5,_RNCNvMNtNtCs7iCqo0KpDVZ_20rain_tracker_service4fopr15metadata_parserNtB4_13MetaStatsData20from_worksheet_ranges9_0B8_
FNDA:100,_RNCNvMNtNtCs7iCqo0KpDVZ_20rain_tracker_service4fopr15metadata_parserNtB4_13MetaStatsData20from_worksheet_ranges_0B8_
FNDA:5,_RNCNvMNtNtCs7iCqo0KpDVZ_20rain_tracker_service4fopr15metadata_parserNtB4_13MetaStatsData20from_worksheet_rangesa_0B8_
FNDA:5,_RNCNvMNtNtCs7iCqo0KpDVZ_20rain_tracker_service4fopr15metadata_parserNtB4_13MetaStatsData20from_worksheet_rangesb_0B8_
FNDA:5,_RNCNvMNtNtCs7iCqo0KpDVZ_20rain_tracker_service4fopr15metadata_parserNtB4_13MetaStatsData20from_worksheet_rangesc_0B8_
FNDA:5,_RNCNvNtNtCs7iCqo0KpDVZ_20rain_tracker_service4fopr15metadata_parser15parse_elevation0B7_
FNDA:0,_RNCNvNtNtCs7iCqo0KpDVZ_20rain_tracker_service4fopr15metadata_parser18extract_numeric_id0B7_
FNDA:10,_RNCNvNtNtCs7iCqo0KpDVZ_20rain_tracker_service4fopr15metadata_parser21parse_gage_id_history0B7_
FNDA:5,_RNCNvNtNtCs7iCqo0KpDVZ_20rain_tracker_service4fopr15metadata_parser21parse_gage_id_historys_0B7_
FNDA:35,_RNCNvNtNtCs7iCqo0KpDVZ_20rain_tracker_service4fopr15metadata_parser22excel_datetime_to_date0B7_
FNDA:5,_RNCNvNtNtCs7iCqo0KpDVZ_20rain_tracker_service4fopr15metadata_parser22extract_complete_years0B7_
FNDA:5,_RNCNvNtNtCs7iCqo0KpDVZ_20rain_tracker_service4fopr15metadata_parser22extract_complete_yearss_0B7_
FNDA:5,_RNvMNtNtCs7iCqo0KpDVZ_20rain_tracker_service4fopr15metadata_parserNtB2_13MetaStatsData20from_worksheet_range
FNDA:5,_RNvNtNtCs7iCqo0KpDVZ_20rain_tracker_service4fopr15metadata_parser15parse_elevation
FNDA:5,_RNvNtNtCs7iCqo0KpDVZ_20rain_tracker_service4fopr15metadata_parser17validate_latitude
FNDA:10,_RNvNtNtCs7iCqo0KpDVZ_20rain_tracker_service4fopr15metadata_parser18extract_numeric_id
FNDA:5,_RNvNtNtCs7iCqo0KpDVZ_20rain_tracker_service4fopr15metadata_parser18validate_elevation
FNDA:5,_RNvNtNtCs7iCqo0KpDVZ_20rain_tracker_service4fopr15metadata_parser18validate_longitude
FNDA:5,_RNvNtNtCs7iCqo0KpDVZ_20rain_tracker_service4fopr15metadata_parser20excel_serial_to_date
FNDA:5,_RNvNtNtCs7iCqo0KpDVZ_20rain_tracker_service4fopr15metadata_parser21parse_gage_id_history
FNDA:35,_RNvNtNtCs7iCqo0KpDVZ_20rain_tracker_service4fopr15metadata_parser22excel_datetime_to_date
FNDA:5,_RNvNtNtCs7iCqo0KpDVZ_20rain_tracker_service4fopr15metadata_parser22extract_complete_years
FNDA:5,_RNvNtNtCs7iCqo0KpDVZ_20rain_tracker_service4fopr15metadata_parser22validate_precipitation
FNDA:5,_RNvNtNtCs7iCqo0KpDVZ_20rain_tracker_service4fopr15metadata_parser27calculate_installation_date
FNDA:0,_RINvNtNtCs4I6j3VtXKYU_20rain_tracker_service4fopr15metadata_parser18add_frequency_statppEB6_
FNDA:0,_RNCNCNvMNtNtCs4I6j3VtXKYU_20rain_tracker_service4fopr15metadata_parserNtB6_13MetaStatsData20from_worksheet_range00Ba_
FNDA:0,_RNCNCNvMNtNtCs4I6j3VtXKYU_20rain_tracker_service4fopr15metadata_parserNtB6_13MetaStatsData20from_worksheet_ranges0_00Ba_
FNDA:0,_RNCNCNvMNtNtCs4I6j3VtXKYU_20rain_tracker_service4fopr15metadata_parserNtB6_13MetaStatsData20from_worksheet_ranges_00Ba_
FNDA:0,_RNCNvMNtNtCs4I6j3VtXKYU_20rain_tracker_service4fopr15metadata_parserNtB4_13MetaStatsData20from_worksheet_range0B8_
FNDA:0,_RNCNvMNtNtCs4I6j3VtXKYU_20rain_tracker_service4fopr15metadata_parserNtB4_13MetaStatsData20from_worksheet_ranges0_0B8_
FNDA:0,_RNCNvMNtNtCs4I6j3VtXKYU_20rain_tracker_service4fopr15metadata_parserNtB4_13MetaStatsData20from_worksheet_ranges1_0B8_
FNDA:0,_RNCNvMNtNtCs4I6j3VtXKYU_20rain_tracker_service4fopr15metadata_parserNtB4_13MetaStatsData20from_worksheet_ranges2_0B8_
FNDA:0,_RNCNvMNtNtCs4I6j3VtXKYU_20rain_tracker_service4fopr15metadata_parserNtB4_13MetaStatsData20from_worksheet_ranges3_0B8_
FNDA:0,_RNCNvMNtNtCs4I6j3VtXKYU_20rain_tracker_service4fopr15metadata_parserNtB4_13MetaStatsData20from_worksheet_ranges4_0B8_
FNDA:0,_RNCNvMNtNtCs4I6j3VtXKYU_20rain_tracker_service4fopr15metadata_parserNtB4_13MetaStatsData20from_worksheet_ranges5_0B8_
FNDA:0,_RNCNvMNtNtCs4I6j3VtXKYU_20rain_tracker_service4fopr15metadata_parserNtB4_13MetaStatsData20from_worksheet_ranges6_0B8_
FNDA:0,_RNCNvMNtNtCs4I6j3VtXKYU_20rain_tracker_service4fopr15metadata_parserNtB4_13MetaStatsData20from_worksheet_ranges7_0B8_
FNDA:0,_RNCNvMNtNtCs4I6j3VtXKYU_20rain_tracker_service4fopr15metadata_parserNtB4_13MetaStatsData20from_worksheet_ranges8_0B8_
FNDA:0,_RNCNvMNtNtCs4I6j3VtXKYU_20rain_tracker_service4fopr15metadata_parserNtB4_13MetaStatsData20from_worksheet_ranges9_0B8_
FNDA:0,_RNCNvMNtNtCs4I6j3VtXKYU_20rain_tracker_service4fopr15metadata_parserNtB4_13MetaStatsData20from_worksheet_ranges_0B8_
FNDA:0,_RNCNvMNtNtCs4I6j3VtXKYU_20rain_tracker_service4fopr15metadata_parserNtB4_13MetaStatsData20from_worksheet_rangesa_0B8_
FNDA:0,_RNCNvMNtNtCs4I6j3VtXKYU_20rain_tracker_service4fopr15metadata_parserNtB4_13MetaStatsData20from_worksheet_rangesb_0B8_
FNDA:0,_RNCNvMNtNtCs4I6j3VtXKYU_20rain_tracker_service4fopr15metadata_parserNtB4_13MetaStatsData20from_worksheet_rangesc_0B8_
FNDA:0,_RNCNvNtNtCs4I6j3VtXKYU_20rain_tracker_service4fopr15metadata_parser22excel_datetime_to_date0B7_
FNDA:0,_RNvMNtNtCs4I6j3VtXKYU_20rain_tracker_service4fopr15metadata_parserNtB2_13MetaStatsData20from_worksheet_range
FNDA:0,_RNvNtNtCs4I6j3VtXKYU_20rain_tracker_service4fopr15metadata_parser22excel_datetime_to_date
FNDA:3,_RNCNvNtNtCs4I6j3VtXKYU_20rain_tracker_service4fopr15metadata_parser15parse_elevation0B7_
FNDA:0,_RNCNvNtNtCs4I6j3VtXKYU_20rain_tracker_service4fopr15metadata_parser18extract_numeric_id0B7_
FNDA:8,_RNCNvNtNtCs4I6j3VtXKYU_20rain_tracker_service4fopr15metadata_parser21parse_gage_id_history0B7_
FNDA:3,_RNCNvNtNtCs4I6j3VtXKYU_20rain_tracker_service4fopr15metadata_parser21parse_gage_id_historys_0B7_
FNDA:2,_RNCNvNtNtCs4I6j3VtXKYU_20rain_tracker_service4fopr15metadata_parser22extract_complete_years0B7_
FNDA:2,_RNCNvNtNtCs4I6j3VtXKYU_20rain_tracker_service4fopr15metadata_parser22extract_complete_yearss_0B7_
FNDA:3,_RNvNtNtCs4I6j3VtXKYU_20rain_tracker_service4fopr15metadata_parser15parse_elevation
FNDA:3,_RNvNtNtCs4I6j3VtXKYU_20rain_tracker_service4fopr15metadata_parser17validate_latitude
FNDA:14,_RNvNtNtCs4I6j3VtXKYU_20rain_tracker_service4fopr15metadata_parser18extract_numeric_id
FNDA:4,_RNvNtNtCs4I6j3VtXKYU_20rain_tracker_service4fopr15metadata_parser18validate_elevation
FNDA:3,_RNvNtNtCs4I6j3VtXKYU_20rain_tracker_service4fopr15metadata_parser18validate_longitude
FNDA:9865,_RNvNtNtCs4I6j3VtXKYU_20rain_tracker_service4fopr15metadata_parser20excel_serial_to_date
FNDA:5,_RNvNtNtCs4I6j3VtXKYU_20rain_tracker_service4fopr15metadata_parser21parse_gage_id_history
FNDA:3,_RNvNtNtCs4I6j3VtXKYU_20rain_tracker_service4fopr15metadata_parser22extract_complete_years
FNDA:3,_RNvNtNtCs4I6j3VtXKYU_20rain_tracker_service4fopr15metadata_parser22validate_precipitation
FNDA:1,_RNvNtNtCs4I6j3VtXKYU_20rain_tracker_service4fopr15metadata_parser27calculate_installation_date
FNDA:1,_RNvNtNtNtCs4I6j3VtXKYU_20rain_tracker_service4fopr15metadata_parser5testss_25test_excel_serial_to_date
FNDA:1,_RNvNtNtNtCs4I6j3VtXKYU_20rain_tracker_service4fopr15metadata_parser5testss_27test_extract_complete_years
FNDA:1,_RNvNtNtNtCs4I6j3VtXKYU_20rain_tracker_service4fopr15metadata_parser5testss_28test_parse_elevation_invalid
FNDA:1,_RNvNtNtNtCs4I6j3VtXKYU_20rain_tracker_service4fopr15metadata_parser5testss_28test_validate_latitude_valid
FNDA:1,_RNvNtNtNtCs4I6j3VtXKYU_20rain_tracker_service4fopr15metadata_parser5testss_29test_extract_numeric_id_clean
FNDA:1,_RNvNtNtNtCs4I6j3VtXKYU_20rain_tracker_service4fopr15metadata_parser5testss_29test_parse_elevation_no_comma
FNDA:1,_RNvNtNtNtCs4I6j3VtXKYU_20rain_tracker_service4fopr15metadata_parser5testss_29test_validate_elevation_valid
FNDA:1,_RNvNtNtNtCs4I6j3VtXKYU_20rain_tracker_service4fopr15metadata_parser5testss_29test_validate_longitude_valid
FNDA:1,_RNvNtNtNtCs4I6j3VtXKYU_20rain_tracker_service4fopr15metadata_parser5testss_30test_extract_numeric_id_4digit
FNDA:1,_RNvNtNtNtCs4I6j3VtXKYU_20rain_tracker_service4fopr15metadata_parser5testss_31test_parse_elevation_with_comma
FNDA:1,_RNvNtNtNtCs4I6j3VtXKYU_20rain_tracker_service4fopr15metadata_parser5testss_31test_validate_elevation_too_low
FNDA:1,_RNvNtNtNtCs4I6j3VtXKYU_20rain_tracker_service4fopr15metadata_parser5testss_32test_calculate_installation_date
FNDA:1,_RNvNtNtNtCs4I6j3VtXKYU_20rain_tracker_service4fopr15metadata_parser5testss_32test_validate_elevation_too_high
FNDA:1,_RNvNtNtNtCs4I6j3VtXKYU_20rain_tracker_service4fopr15metadata_parser5testss_33test_validate_precipitation_valid
FNDA:1,_RNvNtNtNtCs4I6j3VtXKYU_20rain_tracker_service4fopr15metadata_parser5testss_34test_extract_numeric_id_with_since
FNDA:1,_RNvNtNtNtCs4I6j3VtXKYU_20rain_tracker_service4fopr15metadata_parser5testss_36test_extract_complete_years_no_match
FNDA:1,_RNvNtNtNtCs4I6j3VtXKYU_20rain_tracker_service4fopr15metadata_parser5testss_36test_validate_latitude_too_far_north
FNDA:1,_RNvNtNtNtCs4I6j3VtXKYU_20rain_tracker_service4fopr15metadata_parser5testss_36test_validate_latitude_too_far_south
FNDA:1,_RNvNtNtNtCs4I6j3VtXKYU_20rain_tracker_service4fopr15metadata_parser5testss_36test_validate_longitude_too_far_east
FNDA:1,_RNvNtNtNtCs4I6j3VtXKYU_20rain_tracker_service4fopr15metadata_parser5testss_36test_validate_longitude_too_far_west
FNDA:1,_RNvNtNtNtCs4I6j3VtXKYU_20rain_tracker_service4fopr15metadata_parser5testss_36test_validate_precipitation_negative
FNDA:1,_RNvNtNtNtCs4I6j3VtXKYU_20rain_tracker_service4fopr15metadata_parser5testss_36test_validate_precipitation_too_high
FNDA:1,_RNvNtNtNtCs4I6j3VtXKYU_20rain_tracker_service4fopr15metadata_parser5testss_37test_parse_gage_id_history_with_since
FNDA:1,_RNvNtNtNtCs4I6j3VtXKYU_20rain_tracker_service4fopr15metadata_parser5testss_38test_parse_gage_id_history_no_previous
FNDA:1,_RNvNtNtNtCs4I6j3VtXKYU_20rain_tracker_service4fopr15metadata_parser5testss_40test_parse_gage_id_history_with_previous
FNDA:1,_RNvNtNtNtCs4I6j3VtXKYU_20rain_tracker_service4fopr15metadata_parser5testss_41test_extract_numeric_id_with_installation
FNDA:1,_RNvNtNtNtCs4I6j3VtXKYU_20rain_tracker_service4fopr15metadata_parser5testss_42test_excel_serial_to_date_water_year_start
FNDA:1,_RNvNtNtNtCs4I6j3VtXKYU_20rain_tracker_service4fopr15metadata_parser5testss_43test_extract_complete_years_different_count
FNDA:1,_RNvNtNtNtCs4I6j3VtXKYU_20rain_tracker_service4fopr15metadata_parser5testss_44test_parse_gage_id_history_multiple_previous
FNDA:1,_RNvNtNtNtCs4I6j3VtXKYU_20rain_tracker_service4fopr15metadata_parser5testss_44test_parse_gage_id_history_with_installation
FNF:68
FNH:65
DA:70,5
DA:72,55
DA:73,55
DA:74,55
DA:75,0
DA:76,0
DA:77,0
DA:78,55
DA:79,55
DA:82,100
DA:83,100
DA:84,95
DA:85,0
DA:86,5
DA:87,0
DA:88,0
DA:89,100
DA:90,100
DA:93,35
DA:94,35
DA:95,35
DA:96,0
DA:97,0
DA:98,0
DA:99,35
DA:100,35
DA:103,5
DA:104,5
DA:107,5
DA:110,5
DA:113,5
DA:114,5
DA:117,5
DA:118,5
DA:121,5
DA:122,5
DA:123,5
DA:124,0
DA:127,5
DA:130,5
DA:133,5
DA:136,5
DA:138,5
DA:139,5
DA:140,5
DA:141,5
DA:142,0
DA:146,5
DA:147,5
DA:148,5
DA:149,0
DA:151,5
DA:152,5
DA:155,5
DA:156,5
DA:157,5
DA:158,5
DA:160,0
DA:162,5
DA:163,5
DA:165,5
DA:166,5
DA:167,5
DA:168,5
DA:170,0
DA:172,5
DA:173,5
DA:175,5
DA:178,5
DA:181,5
DA:182,5
DA:183,5
DA:184,5
DA:185,5
DA:186,5
DA:187,5
DA:188,5
DA:189,5
DA:192,5
DA:193,5
DA:194,5
DA:195,5
DA:196,5
DA:197,5
DA:199,5
DA:200,5
DA:201,5
DA:202,5
DA:203,5
DA:204,5
DA:205,5
DA:206,5
DA:207,5
DA:208,5
DA:209,5
DA:210,5
DA:211,5
DA:212,5
DA:213,5
DA:214,5
DA:215,5
DA:216,5
DA:217,5
DA:218,5
DA:219,5
DA:220,5
DA:225,10
DA:226,18
DA:229,10
DA:232,10
DA:233,10
DA:234,10
DA:236,8
DA:237,8
DA:238,0
DA:240,8
DA:242,8
DA:243,10
DA:245,10
DA:246,10
DA:247,10
DA:248,10
DA:249,10
DA:253,24
DA:254,24
DA:255,24
DA:262,9870
DA:264,9870
DA:265,9870
DA:266,9870
DA:269,35
DA:270,35
DA:271,35
DA:274,6
DA:275,6
DA:276,6
DA:277,6
DA:278,6
DA:283,8
DA:284,8
DA:285,8
DA:286,8
DA:287,8
DA:288,8
DA:291,8
DA:292,8
DA:293,8
DA:294,8
DA:295,8
DA:296,8
DA:297,8
DA:300,30
DA:301,30
DA:302,30
DA:303,30
DA:304,30
DA:305,30
DA:306,30
DA:307,30
DA:308,30
DA:311,30
DA:312,30
DA:313,30
DA:316,30
DA:317,30
DA:318,30
DA:319,30
DA:320,30
DA:321,30
DA:324,30
DA:325,30
DA:326,30
DA:327,30
DA:328,30
DA:329,30
DA:330,30
DA:337,8
DA:338,8
DA:339,6
DA:341,2
DA:342,2
DA:343,2
DA:345,8
DA:352,8
DA:353,8
DA:354,6
DA:356,2
DA:357,2
DA:358,2
DA:360,8
DA:368,9
DA:369,9
DA:370,7
DA:372,2
DA:373,2
DA:374,2
DA:376,9
DA:379,8
DA:380,8
DA:381,6
DA:383,2
DA:384,2
DA:385,2
DA:387,8
DA:395,1
DA:396,1
DA:397,1
DA:398,1
DA:399,1
DA:400,1
DA:403,1
DA:404,1
DA:405,1
DA:406,1
DA:407,1
DA:408,1
DA:411,1
DA:412,1
DA:413,1
DA:414,1
DA:415,1
DA:416,1
DA:419,1
DA:420,1
DA:421,1
DA:422,1
DA:423,1
DA:424,1
DA:427,1
DA:428,1
DA:429,1
DA:430,1
DA:431,1
DA:432,1
DA:435,1
DA:436,1
DA:437,1
DA:438,1
DA:441,1
DA:442,1
DA:443,1
DA:444,1
DA:447,1
DA:448,1
DA:449,1
DA:452,1
DA:453,1
DA:454,1
DA:457,1
DA:459,1
DA:460,1
DA:461,1
DA:462,1
DA:463,1
DA:466,1
DA:468,1
DA:469,1
DA:470,1
DA:471,1
DA:472,1
DA:475,1
DA:476,1
DA:477,1
DA:480,1
DA:481,1
DA:482,1
DA:485,1
DA:486,1
DA:487,1
DA:490,1
DA:491,1
DA:492,1
DA:493,1
DA:496,1
DA:497,1
DA:498,1
DA:499,1
DA:502,1
DA:503,1
DA:504,1
DA:505,1
DA:508,1
DA:509,1
DA:510,1
DA:513,1
DA:514,1
DA:515,1
DA:518,1
DA:519,1
DA:520,1
DA:523,1
DA:524,1
DA:525,1
DA:528,1
DA:529,1
DA:530,1
DA:533,1
DA:534,1
DA:535,1
DA:538,1
DA:539,1
DA:540,1
DA:541,1
DA:544,1
DA:545,1
DA:546,1
DA:549,1
DA:550,1
DA:551,1
DA:554,1
DA:555,1
DA:556,1
DA:559,1
DA:560,1
DA:561,1
DA:564,1
DA:565,1
DA:566,1
DA:569,1
DA:573,1
DA:574,1
DA:576,1
DA:577,1
BRF:0
BRH:0
LF:348
LH:330
end_of_record
SF:/Users/terry/RustroverProjects/rain-tracker-service/src/gauge_list_fetcher.rs
FN:43,_RNCNvMNtCs7iCqo0KpDVZ_20rain_tracker_service18gauge_list_fetcherNtB4_16GaugeListFetcher16fetch_gauge_list0B6_
FN:172,_RNCNvMNtCs7iCqo0KpDVZ_20rain_tracker_service18gauge_list_fetcherNtB4_16GaugeListFetcher16parse_gauge_line0B6_
FN:182,_RNCNvMNtCs7iCqo0KpDVZ_20rain_tracker_service18gauge_list_fetcherNtB4_16GaugeListFetcher16parse_gauge_lines0_0B6_
FN:185,_RNCNvMNtCs7iCqo0KpDVZ_20rain_tracker_service18gauge_list_fetcherNtB4_16GaugeListFetcher16parse_gauge_lines1_0B6_
FN:177,_RNCNvMNtCs7iCqo0KpDVZ_20rain_tracker_service18gauge_list_fetcherNtB4_16GaugeListFetcher16parse_gauge_lines_0B6_
FN:55,_RNvMNtCs7iCqo0KpDVZ_20rain_tracker_service18gauge_list_fetcherNtB2_16GaugeListFetcher10parse_text
FN:43,_RNvMNtCs7iCqo0KpDVZ_20rain_tracker_service18gauge_list_fetcherNtB2_16GaugeListFetcher16fetch_gauge_list
FN:127,_RNvMNtCs7iCqo0KpDVZ_20rain_tracker_service18gauge_list_fetcherNtB2_16GaugeListFetcher16parse_gauge_line
FN:35,_RNvMNtCs7iCqo0KpDVZ_20rain_tracker_service18gauge_list_fetcherNtB2_16GaugeListFetcher3new
FN:30,_RNvNtCs7iCqo0KpDVZ_20rain_tracker_service18gauge_list_fetcher18extract_station_id
FN:43,_RNCNvMNtCs7iCqo0KpDVZ_20rain_tracker_service18gauge_list_fetcherNtB4_16GaugeListFetcher16fetch_gauge_list0Csdpfhlhhwi2Y_20rain_tracker_service
FN:172,_RNCNvMNtCs4I6j3VtXKYU_20rain_tracker_service18gauge_list_fetcherNtB4_16GaugeListFetcher16parse_gauge_line0B6_
FN:182,_RNCNvMNtCs4I6j3VtXKYU_20rain_tracker_service18gauge_list_fetcherNtB4_16GaugeListFetcher16parse_gauge_lines0_0B6_
FN:185,_RNCNvMNtCs4I6j3VtXKYU_20rain_tracker_service18gauge_list_fetcherNtB4_16GaugeListFetcher16parse_gauge_lines1_0B6_
FN:177,_RNCNvMNtCs4I6j3VtXKYU_20rain_tracker_service18gauge_list_fetcherNtB4_16GaugeListFetcher16parse_gauge_lines_0B6_
FN:43,_RNCNvMNtCs4I6j3VtXKYU_20rain_tracker_service18gauge_list_fetcherNtB4_16GaugeListFetcher16fetch_gauge_list0B6_
FN:43,_RNvMNtCs4I6j3VtXKYU_20rain_tracker_service18gauge_list_fetcherNtB2_16GaugeListFetcher16fetch_gauge_list
FN:55,_RNvMNtCs4I6j3VtXKYU_20rain_tracker_service18gauge_list_fetcherNtB2_16GaugeListFetcher10parse_text
FN:127,_RNvMNtCs4I6j3VtXKYU_20rain_tracker_service18gauge_list_fetcherNtB2_16GaugeListFetcher16parse_gauge_line
FN:35,_RNvMNtCs4I6j3VtXKYU_20rain_tracker_service18gauge_list_fetcherNtB2_16GaugeListFetcher3new
FN:30,_RNvNtCs4I6j3VtXKYU_20rain_tracker_service18gauge_list_fetcher18extract_station_id
FN:231,_RNvNtNtCs4I6j3VtXKYU_20rain_tracker_service18gauge_list_fetcher5testss_27test_parse_gauge_line_valid
FN:262,_RNvNtNtCs4I6j3VtXKYU_20rain_tracker_service18gauge_list_fetcher5testss_28test_parse_text_with_headers
FN:310,_RNvNtNtCs4I6j3VtXKYU_20rain_tracker_service18gauge_list_fetcher5testss_29test_extract_station_id_clean
FN:343,_RNvNtNtCs4I6j3VtXKYU_20rain_tracker_service18gauge_list_fetcher5testss_29test_extract_station_id_mixed
FN:379,_RNvNtNtCs4I6j3VtXKYU_20rain_tracker_service18gauge_list_fetcher5testss_32test_extract_station_id_too_long
FN:373,_RNvNtNtCs4I6j3VtXKYU_20rain_tracker_service18gauge_list_fetcher5testss_33test_extract_station_id_too_short
FN:289,_RNvNtNtCs4I6j3VtXKYU_20rain_tracker_service18gauge_list_fetcher5testss_34test_parse_text_skips_header_lines
FN:337,_RNvNtNtCs4I6j3VtXKYU_20rain_tracker_service18gauge_list_fetcher5testss_35test_extract_station_id_non_numeric
FN:352,_RNvNtNtCs4I6j3VtXKYU_20rain_tracker_service18gauge_list_fetcher5testss_36test_extract_station_id_4digit_clean
FN:366,_RNvNtNtCs4I6j3VtXKYU_20rain_tracker_service18gauge_list_fetcher5testss_36test_extract_station_id_4digit_prior
FN:253,_RNvNtNtCs4I6j3VtXKYU_20rain_tracker_service18gauge_list_fetcher5testss_36test_parse_gauge_line_missing_fields
FN:331,_RNvNtNtCs4I6j3VtXKYU_20rain_tracker_service18gauge_list_fetcher5testss_38test_extract_station_id_invalid_length
FN:324,_RNvNtNtCs4I6j3VtXKYU_20rain_tracker_service18gauge_list_fetcher5testss_39test_extract_station_id_with_other_text
FN:317,_RNvNtNtCs4I6j3VtXKYU_20rain_tracker_service18gauge_list_fetcher5testss_39test_extract_station_id_with_since_text
FN:359,_RNvNtNtCs4I6j3VtXKYU_20rain_tracker_service18gauge_list_fetcher5testss_41test_extract_station_id_4digit_with_since
FNDA:0,_RNCNvMNtCs7iCqo0KpDVZ_20rain_tracker_service18gauge_list_fetcherNtB4_16GaugeListFetcher16fetch_gauge_list0B6_
FNDA:0,_RNCNvMNtCs7iCqo0KpDVZ_20rain_tracker_service18gauge_list_fetcherNtB4_16GaugeListFetcher16parse_gauge_line0B6_
FNDA:0,_RNCNvMNtCs7iCqo0KpDVZ_20rain_tracker_service18gauge_list_fetcherNtB4_16GaugeListFetcher16parse_gauge_lines0_0B6_
FNDA:0,_RNCNvMNtCs7iCqo0KpDVZ_20rain_tracker_service18gauge_list_fetcherNtB4_16GaugeListFetcher16parse_gauge_lines1_0B6_
FNDA:0,_RNCNvMNtCs7iCqo0KpDVZ_20rain_tracker_service18gauge_list_fetcherNtB4_16GaugeListFetcher16parse_gauge_lines_0B6_
FNDA:0,_RNvMNtCs7iCqo0KpDVZ_20rain_tracker_service18gauge_list_fetcherNtB2_16GaugeListFetcher10parse_text
FNDA:0,_RNvMNtCs7iCqo0KpDVZ_20rain_tracker_service18gauge_list_fetcherNtB2_16GaugeListFetcher16fetch_gauge_list
FNDA:0,_RNvMNtCs7iCqo0KpDVZ_20rain_tracker_service18gauge_list_fetcherNtB2_16GaugeListFetcher16parse_gauge_line
FNDA:0,_RNvMNtCs7iCqo0KpDVZ_20rain_tracker_service18gauge_list_fetcherNtB2_16GaugeListFetcher3new
FNDA:0,_RNvNtCs7iCqo0KpDVZ_20rain_tracker_service18gauge_list_fetcher18extract_station_id
FNDA:0,_RNCNvMNtCs7iCqo0KpDVZ_20rain_tracker_service18gauge_list_fetcherNtB4_16GaugeListFetcher16fetch_gauge_list0Csdpfhlhhwi2Y_20rain_tracker_service
FNDA:0,_RNCNvMNtCs4I6j3VtXKYU_20rain_tracker_service18gauge_list_fetcherNtB4_16GaugeListFetcher16parse_gauge_line0B6_
FNDA:0,_RNCNvMNtCs4I6j3VtXKYU_20rain_tracker_service18gauge_list_fetcherNtB4_16GaugeListFetcher16parse_gauge_lines0_0B6_
FNDA:4,_RNCNvMNtCs4I6j3VtXKYU_20rain_tracker_service18gauge_list_fetcherNtB4_16GaugeListFetcher16parse_gauge_lines1_0B6_
FNDA:0,_RNCNvMNtCs4I6j3VtXKYU_20rain_tracker_service18gauge_list_fetcherNtB4_16GaugeListFetcher16parse_gauge_lines_0B6_
FNDA:0,_RNCNvMNtCs4I6j3VtXKYU_20rain_tracker_service18gauge_list_fetcherNtB4_16GaugeListFetcher16fetch_gauge_list0B6_
FNDA:0,_RNvMNtCs4I6j3VtXKYU_20rain_tracker_service18gauge_list_fetcherNtB2_16GaugeListFetcher16fetch_gauge_list
FNDA:2,_RNvMNtCs4I6j3VtXKYU_20rain_tracker_service18gauge_list_fetcherNtB2_16GaugeListFetcher10parse_text
FNDA:5,_RNvMNtCs4I6j3VtXKYU_20rain_tracker_service18gauge_list_fetcherNtB2_16GaugeListFetcher16parse_gauge_line
FNDA:4,_RNvMNtCs4I6j3VtXKYU_20rain_tracker_service18gauge_list_fetcherNtB2_16GaugeListFetcher3new
FNDA:15,_RNvNtCs4I6j3VtXKYU_20rain_tracker_service18gauge_list_fetcher18extract_station_id
FNDA:1,_RNvNtNtCs4I6j3VtXKYU_20rain_tracker_service18gauge_list_fetcher5testss_27test_parse_gauge_line_valid
FNDA:1,_RNvNtNtCs4I6j3VtXKYU_20rain_tracker_service18gauge_list_fetcher5testss_28test_parse_text_with_headers
FNDA:1,_RNvNtNtCs4I6j3VtXKYU_20rain_tracker_service18gauge_list_fetcher5testss_29test_extract_station_id_clean
FNDA:1,_RNvNtNtCs4I6j3VtXKYU_20rain_tracker_service18gauge_list_fetcher5testss_29test_extract_station_id_mixed
FNDA:1,_RNvNtNtCs4I6j3VtXKYU_20rain_tracker_service18gauge_list_fetcher5testss_32test_extract_station_id_too_long
FNDA:1,_RNvNtNtCs4I6j3VtXKYU_20rain_tracker_service18gauge_list_fetcher5testss_33test_extract_station_id_too_short
FNDA:1,_RNvNtNtCs4I6j3VtXKYU_20rain_tracker_service18gauge_list_fetcher5testss_34test_parse_text_skips_header_lines
FNDA:1,_RNvNtNtCs4I6j3VtXKYU_20rain_tracker_service18gauge_list_fetcher5testss_35test_extract_station_id_non_numeric
FNDA:1,_RNvNtNtCs4I6j3VtXKYU_20rain_tracker_service18gauge_list_fetcher5testss_36test_extract_station_id_4digit_clean
FNDA:1,_RNvNtNtCs4I6j3VtXKYU_20rain_tracker_service18gauge_list_fetcher5testss_36test_extract_station_id_4digit_prior
FNDA:1,_RNvNtNtCs4I6j3VtXKYU_20rain_tracker_service18gauge_list_fetcher5testss_36test_parse_gauge_line_missing_fields
FNDA:1,_RNvNtNtCs4I6j3VtXKYU_20rain_tracker_service18gauge_list_fetcher5testss_38test_extract_station_id_invalid_length
FNDA:1,_RNvNtNtCs4I6j3VtXKYU_20rain_tracker_service18gauge_list_fetcher5testss_39test_extract_station_id_with_other_text
FNDA:1,_RNvNtNtCs4I6j3VtXKYU_20rain_tracker_service18gauge_list_fetcher5testss_39test_extract_station_id_with_since_text
FNDA:1,_RNvNtNtCs4I6j3VtXKYU_20rain_tracker_service18gauge_list_fetcher5testss_41test_extract_station_id_4digit_with_since
FNF:25
FNH:20
DA:30,15
DA:31,15
DA:32,15
DA:35,4
DA:36,4
DA:37,4
DA:38,4
DA:39,4
DA:40,4
DA:43,0
DA:52,0
DA:55,2
DA:56,2
DA:57,2
DA:58,2
DA:59,2
DA:60,2
DA:62,23
DA:63,23
DA:66,23
DA:67,7
DA:68,16
DA:73,16
DA:74,9
DA:75,2
DA:77,2
DA:78,2
DA:79,2
DA:80,14
DA:83,14
DA:84,7
DA:85,4
DA:86,2
DA:88,2
DA:89,2
DA:90,12
DA:93,12
DA:94,5
DA:95,2
DA:97,2
DA:98,2
DA:99,2
DA:100,10
DA:103,10
DA:104,7
DA:105,3
DA:108,3
DA:109,3
DA:110,3
DA:111,3
DA:112,0
DA:113,0
DA:114,0
DA:119,2
DA:120,0
DA:121,2
DA:122,2
DA:124,2
DA:125,2
DA:127,5
DA:132,5
DA:134,5
DA:135,1
DA:136,4
DA:143,4
DA:144,24
DA:145,24
DA:148,4
DA:149,4
DA:150,4
DA:151,0
DA:152,20
DA:155,4
DA:162,4
DA:163,0
DA:164,4
DA:167,4
DA:170,4
DA:171,4
DA:172,4
DA:175,4
DA:176,4
DA:177,4
DA:180,4
DA:181,4
DA:182,4
DA:185,4
DA:186,4
DA:187,3
DA:189,1
DA:193,4
DA:194,4
DA:196,0
DA:200,4
DA:201,4
DA:203,0
DA:207,4
DA:208,4
DA:210,0
DA:213,4
DA:214,4
DA:215,4
DA:216,4
DA:217,4
DA:218,4
DA:219,4
DA:220,4
DA:221,4
DA:222,4
DA:223,5
DA:231,1
DA:232,1
DA:233,1
DA:235,1
DA:236,1
DA:238,1
DA:239,1
DA:241,1
DA:242,1
DA:243,1
DA:244,1
DA:245,1
DA:246,1
DA:248,1
DA:250,1
DA:253,1
DA:254,1
DA:255,1
DA:257,1
DA:258,1
DA:259,1
DA:262,1
DA:263,1
DA:264,1
DA:265,1
DA:266,1
DA:267,1
DA:268,1
DA:269,1
DA:270,1
DA:271,1
DA:272,1
DA:273,1
DA:274,1
DA:275,1
DA:276,1
DA:278,1
DA:279,1
DA:281,1
DA:282,1
DA:283,1
DA:284,1
DA:285,1
DA:286,1
DA:289,1
DA:290,1
DA:291,1
DA:292,1
DA:293,1
DA:294,1
DA:295,1
DA:296,1
DA:297,1
DA:298,1
DA:300,1
DA:301,1
DA:303,1
DA:304,1
DA:305,1
DA:306,1
DA:307,1
DA:310,1
DA:311,1
DA:312,1
DA:313,1
DA:314,1
DA:317,1
DA:318,1
DA:319,1
DA:320,1
DA:321,1
DA:324,1
DA:325,1
DA:326,1
DA:327,1
DA:328,1
DA:331,1
DA:332,1
DA:333,1
DA:334,1
DA:337,1
DA:338,1
DA:339,1
DA:340,1
DA:343,1
DA:346,1
DA:347,1
DA:348,1
DA:349,1
DA:352,1
DA:353,1
DA:354,1
DA:355,1
DA:356,1
DA:359,1
DA:360,1
DA:361,1
DA:362,1
DA:363,1
DA:366,1
DA:367,1
DA:368,1
DA:369,1
DA:370,1
DA:373,1
DA:374,1
DA:375,1
DA:376,1
DA:379,1
DA:380,1
DA:381,1
DA:382,1
BRF:0
BRH:0
LF:227
LH:212
end_of_record
SF:/Users/terry/RustroverProjects/rain-tracker-service/src/importers/downloader.rs
FN:67,_RNCNvMNtNtCs7iCqo0KpDVZ_20rain_tracker_service9importers10downloaderNtB4_15McfcdDownloader12download_pdf0B8_
FN:121,_RNCNvMNtNtCs7iCqo0KpDVZ_20rain_tracker_service9importers10downloaderNtB4_15McfcdDownloader13download_file0B8_
FN:112,_RNCNvMNtNtCs7iCqo0KpDVZ_20rain_tracker_service9importers10downloaderNtB4_15McfcdDownloader13download_fopr0B8_
FN:57,_RNCNvMNtNtCs7iCqo0KpDVZ_20rain_tracker_service9importers10downloaderNtB4_15McfcdDownloader14download_excel0B8_
FN:83,_RNCNvMNtNtCs7iCqo0KpDVZ_20rain_tracker_service9importers10downloaderNtB4_15McfcdDownloader24download_water_year_pdfs0B8_
FN:67,_RNCNvMNtNtCs7iCqo0KpDVZ_20rain_tracker_service9importers10downloaderNtB4_15McfcdDownloader12download_pdf0Csh0bKSXvw25o_15downloader_test
FN:121,_RNCNvMNtNtCs7iCqo0KpDVZ_20rain_tracker_service9importers10downloaderNtB4_15McfcdDownloader13download_file0Csh0bKSXvw25o_15downloader_test
FN:112,_RNCNvMNtNtCs7iCqo0KpDVZ_20rain_tracker_service9importers10downloaderNtB4_15McfcdDownloader13download_fopr0Csh0bKSXvw25o_15downloader_test
FN:57,_RNCNvMNtNtCs7iCqo0KpDVZ_20rain_tracker_service9importers10downloaderNtB4_15McfcdDownloader14download_excel0Csh0bKSXvw25o_15downloader_test
FN:83,_RNCNvMNtNtCs7iCqo0KpDVZ_20rain_tracker_service9importers10downloaderNtB4_15McfcdDownloader24download_water_year_pdfs0Csh0bKSXvw25o_15downloader_test
FN:67,_RNvMNtNtCs7iCqo0KpDVZ_20rain_tracker_service9importers10downloaderNtB2_15McfcdDownloader12download_pdf
FN:121,_RNvMNtNtCs7iCqo0KpDVZ_20rain_tracker_service9importers10downloaderNtB2_15McfcdDownloader13download_file
FN:112,_RNvMNtNtCs7iCqo0KpDVZ_20rain_tracker_service9importers10downloaderNtB2_15McfcdDownloader13download_fopr
FN:45,_RNvMNtNtCs7iCqo0KpDVZ_20rain_tracker_service9importers10downloaderNtB2_15McfcdDownloader13with_base_url
FN:57,_RNvMNtNtCs7iCqo0KpDVZ_20rain_tracker_service9importers10downloaderNtB2_15McfcdDownloader14download_excel
FN:80,_RNvMNtNtCs7iCqo0KpDVZ_20rain_tracker_service9importers10downloaderNtB2_15McfcdDownloader24download_water_year_pdfs
FN:31,_RNvMNtNtCs7iCqo0KpDVZ_20rain_tracker_service9importers10downloaderNtB2_15McfcdDownloader3new
FN:154,_RNvNtNtCs7iCqo0KpDVZ_20rain_tracker_service9importers10downloader15bytes_to_cursor
FN:147,_RNvXs_NtNtCs7iCqo0KpDVZ_20rain_tracker_service9importers10downloaderNtB4_15McfcdDownloaderNtNtCs6FgkbHSHiEg_4core7default7Default7default
FN:121,_RNCNvMNtNtCs7iCqo0KpDVZ_20rain_tracker_service9importers10downloaderNtB4_15McfcdDownloader13download_file0Cs3PAmBzODhhi_19error_handling_test
FN:112,_RNCNvMNtNtCs7iCqo0KpDVZ_20rain_tracker_service9importers10downloaderNtB4_15McfcdDownloader13download_fopr0Cs3PAmBzODhhi_19error_handling_test
FN:121,_RNCNvMNtNtCs7iCqo0KpDVZ_20rain_tracker_service9importers10downloaderNtB4_15McfcdDownloader13download_file0CskhdQylLvBLq_24fopr_import_service_test
FN:112,_RNCNvMNtNtCs7iCqo0KpDVZ_20rain_tracker_service9importers10downloaderNtB4_15McfcdDownloader13download_fopr0CskhdQylLvBLq_24fopr_import_service_test
FN:67,_RNCNvMNtNtCs7iCqo0KpDVZ_20rain_tracker_service9importers10downloaderNtB4_15McfcdDownloader12download_pdf0Cs30uj6WIuzt3_17historical_import
FN:121,_RNCNvMNtNtCs7iCqo0KpDVZ_20rain_tracker_service9importers10downloaderNtB4_15McfcdDownloader13download_file0Cs30uj6WIuzt3_17historical_import
FN:112,_RNCNvMNtNtCs7iCqo0KpDVZ_20rain_tracker_service9importers10downloaderNtB4_15McfcdDownloader13download_fopr0Cs30uj6WIuzt3_17historical_import
FN:57,_RNCNvMNtNtCs7iCqo0KpDVZ_20rain_tracker_service9importers10downloaderNtB4_15McfcdDownloader14download_excel0Cs30uj6WIuzt3_17historical_import
FN:83,_RNCNvMNtNtCs7iCqo0KpDVZ_20rain_tracker_service9importers10downloaderNtB4_15McfcdDownloader24download_water_year_pdfs0Cs30uj6WIuzt3_17historical_import
FN:121,_RNCNvMNtNtCs7iCqo0KpDVZ_20rain_tracker_service9importers10downloaderNtB4_15McfcdDownloader13download_file0Csdpfhlhhwi2Y_20rain_tracker_service
FN:112,_RNCNvMNtNtCs7iCqo0KpDVZ_20rain_tracker_service9importers10downloaderNtB4_15McfcdDownloader13download_fopr0Csdpfhlhhwi2Y_20rain_tracker_service
FN:67,_RNCNvMNtNtCs4I6j3VtXKYU_20rain_tracker_service9importers10downloaderNtB4_15McfcdDownloader12download_pdf0B8_
FN:121,_RNCNvMNtNtCs4I6j3VtXKYU_20rain_tracker_service9importers10downloaderNtB4_15McfcdDownloader13download_file0B8_
FN:112,_RNCNvMNtNtCs4I6j3VtXKYU_20rain_tracker_service9importers10downloaderNtB4_15McfcdDownloader13download_fopr0B8_
FN:57,_RNCNvMNtNtCs4I6j3VtXKYU_20rain_tracker_service9importers10downloaderNtB4_15McfcdDownloader14download_excel0B8_
FN:83,_RNCNvMNtNtCs4I6j3VtXKYU_20rain_tracker_service9importers10downloaderNtB4_15McfcdDownloader24download_water_year_pdfs0B8_
FN:67,_RNvMNtNtCs4I6j3VtXKYU_20rain_tracker_service9importers10downloaderNtB2_15McfcdDownloader12download_pdf
FN:121,_RNvMNtNtCs4I6j3VtXKYU_20rain_tracker_service9importers10downloaderNtB2_15McfcdDownloader13download_file
FN:112,_RNvMNtNtCs4I6j3VtXKYU_20rain_tracker_service9importers10downloaderNtB2_15McfcdDownloader13download_fopr
FN:45,_RNvMNtNtCs4I6j3VtXKYU_20rain_tracker_service9importers10downloaderNtB2_15McfcdDownloader13with_base_url
FN:57,_RNvMNtNtCs4I6j3VtXKYU_20rain_tracker_service9importers10downloaderNtB2_15McfcdDownloader14download_excel
FN:80,_RNvMNtNtCs4I6j3VtXKYU_20rain_tracker_service9importers10downloaderNtB2_15McfcdDownloader24download_water_year_pdfs
FN:31,_RNvMNtNtCs4I6j3VtXKYU_20rain_tracker_service9importers10downloaderNtB2_15McfcdDownloader3new
FN:154,_RNvNtNtCs4I6j3VtXKYU_20rain_tracker_service9importers10downloader15bytes_to_cursor
FN:147,_RNvXs_NtNtCs4I6j3VtXKYU_20rain_tracker_service9importers10downloaderNtB4_15McfcdDownloaderNtNtCs6FgkbHSHiEg_4core7default7Default7default
FN:161,_RNvNtNtNtCs4I6j3VtXKYU_20rain_tracker_service9importers10downloader5testss_30test_water_year_month_sequence
FNDA:0,_RNCNvMNtNtCs7iCqo0KpDVZ_20rain_tracker_service9importers10downloaderNtB4_15McfcdDownloader12download_pdf0B8_
FNDA:0,_RNCNvMNtNtCs7iCqo0KpDVZ_20rain_tracker_service9importers10downloaderNtB4_15McfcdDownloader13download_file0B8_
FNDA:0,_RNCNvMNtNtCs7iCqo0KpDVZ_20rain_tracker_service9importers10downloaderNtB4_15McfcdDownloader13download_fopr0B8_
FNDA:0,_RNCNvMNtNtCs7iCqo0KpDVZ_20rain_tracker_service9importers10downloaderNtB4_15McfcdDownloader14download_excel0B8_
FNDA:0,_RNCNvMNtNtCs7iCqo0KpDVZ_20rain_tracker_service9importers10downloaderNtB4_15McfcdDownloader24download_water_year_pdfs0B8_
FNDA:16,_RNCNvMNtNtCs7iCqo0KpDVZ_20rain_tracker_service9importers10downloaderNtB4_15McfcdDownloader12download_pdf0Csh0bKSXvw25o_15downloader_test
FNDA:21,_RNCNvMNtNtCs7iCqo0KpDVZ_20rain_tracker_service9importers10downloaderNtB4_15McfcdDownloader13download_file0Csh0bKSXvw25o_15downloader_test
FNDA:2,_RNCNvMNtNtCs7iCqo0KpDVZ_20rain_tracker_service9importers10downloaderNtB4_15McfcdDownloader13download_fopr0Csh0bKSXvw25o_15downloader_test
FNDA:3,_RNCNvMNtNtCs7iCqo0KpDVZ_20rain_tracker_service9importers10downloaderNtB4_15McfcdDownloader14download_excel0Csh0bKSXvw25o_15downloader_test
FNDA:2,_RNCNvMNtNtCs7iCqo0KpDVZ_20rain_tracker_service9importers10downloaderNtB4_15McfcdDownloader24download_water_year_pdfs0Csh0bKSXvw25o_15downloader_test
FNDA:16,_RNvMNtNtCs7iCqo0KpDVZ_20rain_tracker_service9importers10downloaderNtB2_15McfcdDownloader12download_pdf
FNDA:24,_RNvMNtNtCs7iCqo0KpDVZ_20rain_tracker_service9importers10downloaderNtB2_15McfcdDownloader13download_file
FNDA:5,_RNvMNtNtCs7iCqo0KpDVZ_20rain_tracker_service9importers10downloaderNtB2_15McfcdDownloader13download_fopr
FNDA:9,_RNvMNtNtCs7iCqo0KpDVZ_20rain_tracker_service9importers10downloaderNtB2_15McfcdDownloader13with_base_url
FNDA:3,_RNvMNtNtCs7iCqo0KpDVZ_20rain_tracker_service9importers10downloaderNtB2_15McfcdDownloader14download_excel
FNDA:2,_RNvMNtNtCs7iCqo0KpDVZ_20rain_tracker_service9importers10downloaderNtB2_15McfcdDownloader24download_water_year_pdfs
FNDA:14,_RNvMNtNtCs7iCqo0KpDVZ_20rain_tracker_service9importers10downloaderNtB2_15McfcdDownloader3new
FNDA:1,_RNvNtNtCs7iCqo0KpDVZ_20rain_tracker_service9importers10downloader15bytes_to_cursor
FNDA:1,_RNvXs_NtNtCs7iCqo0KpDVZ_20rain_tracker_service9importers10downloaderNtB4_15McfcdDownloaderNtNtCs6FgkbHSHiEg_4core7default7Default7default
FNDA:2,_RNCNvMNtNtCs7iCqo0KpDVZ_20rain_tracker_service9importers10downloaderNtB4_15McfcdDownloader13download_file0Cs3PAmBzODhhi_19error_handling_test
FNDA:2,_RNCNvMNtNtCs7iCqo0KpDVZ_20rain_tracker_service9importers10downloaderNtB4_15McfcdDownloader13download_fopr0Cs3PAmBzODhhi_19error_handling_test
FNDA:1,_RNCNvMNtNtCs7iCqo0KpDVZ_20rain_tracker_service9importers10downloaderNtB4_15McfcdDownloader13download_file0CskhdQylLvBLq_24fopr_import_service_test
FNDA:1,_RNCNvMNtNtCs7iCqo0KpDVZ_20rain_tracker_service9importers10downloaderNtB4_15McfcdDownloader13download_fopr0CskhdQylLvBLq_24fopr_import_service_test
FNDA:0,_RNCNvMNtNtCs7iCqo0KpDVZ_20rain_tracker_service9importers10downloaderNtB4_15McfcdDownloader12download_pdf0Cs30uj6WIuzt3_17historical_import
FNDA:0,_RNCNvMNtNtCs7iCqo0KpDVZ_20rain_tracker_service9importers10downloaderNtB4_15McfcdDownloader13download_file0Cs30uj6WIuzt3_17historical_import
FNDA:0,_RNCNvMNtNtCs7iCqo0KpDVZ_20rain_tracker_service9importers10downloaderNtB4_15McfcdDownloader13download_fopr0Cs30uj6WIuzt3_17historical_import
FNDA:0,_RNCNvMNtNtCs7iCqo0KpDVZ_20rain_tracker_service9importers10downloaderNtB4_15McfcdDownloader14download_excel0Cs30uj6WIuzt3_17historical_import
FNDA:0,_RNCNvMNtNtCs7iCqo0KpDVZ_20rain_tracker_service9importers10downloaderNtB4_15McfcdDownloader24download_water_year_pdfs0Cs30uj6WIuzt3_17historical_import
FNDA:0,_RNCNvMNtNtCs7iCqo0KpDVZ_20rain_tracker_service9importers10downloaderNtB4_15McfcdDownloader13download_file0Csdpfhlhhwi2Y_20rain_tracker_service
FNDA:0,_RNCNvMNtNtCs7iCqo0KpDVZ_20rain_tracker_service9importers10downloaderNtB4_15McfcdDownloader13download_fopr0Csdpfhlhhwi2Y_20rain_tracker_service
FNDA:0,_RNCNvMNtNtCs4I6j3VtXKYU_20rain_tracker_service9importers10downloaderNtB4_15McfcdDownloader12download_pdf0B8_
FNDA:0,_RNCNvMNtNtCs4I6j3VtXKYU_20rain_tracker_service9importers10downloaderNtB4_15McfcdDownloader13download_file0B8_
FNDA:0,_RNCNvMNtNtCs4I6j3VtXKYU_20rain_tracker_service9importers10downloaderNtB4_15McfcdDownloader13download_fopr0B8_
FNDA:0,_RNCNvMNtNtCs4I6j3VtXKYU_20rain_tracker_service9importers10downloaderNtB4_15McfcdDownloader14download_excel0B8_
FNDA:0,_RNCNvMNtNtCs4I6j3VtXKYU_20rain_tracker_service9importers10downloaderNtB4_15McfcdDownloader24download_water_year_pdfs0B8_
FNDA:0,_RNvMNtNtCs4I6j3VtXKYU_20rain_tracker_service9importers10downloaderNtB2_15McfcdDownloader12download_pdf
FNDA:0,_RNvMNtNtCs4I6j3VtXKYU_20rain_tracker_service9importers10downloaderNtB2_15McfcdDownloader13download_file
FNDA:0,_RNvMNtNtCs4I6j3VtXKYU_20rain_tracker_service9importers10downloaderNtB2_15McfcdDownloader13download_fopr
FNDA:0,_RNvMNtNtCs4I6j3VtXKYU_20rain_tracker_service9importers10downloaderNtB2_15McfcdDownloader13with_base_url
FNDA:0,_RNvMNtNtCs4I6j3VtXKYU_20rain_tracker_service9importers10downloaderNtB2_15McfcdDownloader14download_excel
FNDA:0,_RNvMNtNtCs4I6j3VtXKYU_20rain_tracker_service9importers10downloaderNtB2_15McfcdDownloader24download_water_year_pdfs
FNDA:0,_RNvMNtNtCs4I6j3VtXKYU_20rain_tracker_service9importers10downloaderNtB2_15McfcdDownloader3new
FNDA:0,_RNvNtNtCs4I6j3VtXKYU_20rain_tracker_service9importers10downloader15bytes_to_cursor
FNDA:0,_RNvXs_NtNtCs4I6j3VtXKYU_20rain_tracker_service9importers10downloaderNtB4_15McfcdDownloaderNtNtCs6FgkbHSHiEg_4core7default7Default7default
FNDA:1,_RNvNtNtNtCs4I6j3VtXKYU_20rain_tracker_service9importers10downloader5testss_30test_water_year_month_sequence
FNF:15
FNH:15
DA:31,14
DA:32,14
DA:33,14
DA:34,14
DA:35,14
DA:36,14
DA:37,14
DA:38,14
DA:39,14
DA:45,9
DA:46,9
DA:47,9
DA:48,9
DA:49,9
DA:50,9
DA:51,9
DA:52,9
DA:53,9
DA:57,3
DA:58,3
DA:59,3
DA:61,3
DA:62,3
DA:63,3
DA:67,16
DA:69,16
DA:70,16
DA:71,16
DA:73,16
DA:74,16
DA:75,16
DA:80,2
DA:81,2
DA:82,2
DA:83,2
DA:84,2
DA:86,2
DA:89,6
DA:90,5
DA:91,4
DA:95,10
DA:96,9
DA:97,9
DA:100,1
DA:101,0
DA:104,1
DA:105,2
DA:112,5
DA:113,5
DA:114,5
DA:116,5
DA:117,5
DA:118,5
DA:121,24
DA:122,24
DA:124,24
DA:126,24
DA:127,17
DA:128,17
DA:129,17
DA:130,7
DA:131,6
DA:132,6
DA:133,6
DA:134,1
DA:135,1
DA:136,1
DA:137,1
DA:139,0
DA:140,0
DA:141,0
DA:143,24
DA:147,1
DA:148,1
DA:149,1
DA:154,1
DA:155,1
DA:156,1
DA:161,1
DA:167,1
DA:170,4
DA:171,3
DA:172,3
DA:173,3
DA:177,10
DA:178,9
DA:179,9
DA:180,9
DA:182,1
BRF:0
BRH:0
LF:94
LH:90
end_of_record
SF:/Users/terry/RustroverProjects/rain-tracker-service/src/importers/excel_importer.rs
FN:42,_RINvMNtNtCs7iCqo0KpDVZ_20rain_tracker_service9importers14excel_importerNtB3_13ExcelImporter3newpEB7_
FN:224,_RNCNvMNtNtCs7iCqo0KpDVZ_20rain_tracker_service9importers14excel_importerNtB4_13ExcelImporter10parse_date0B8_
FN:229,_RNCNvMNtNtCs7iCqo0KpDVZ_20rain_tracker_service9importers14excel_importerNtB4_13ExcelImporter10parse_dates_0B8_
FN:275,_RNCNvMNtNtCs7iCqo0KpDVZ_20rain_tracker_service9importers14excel_importerNtB4_13ExcelImporter14parse_rainfall0B8_
FN:213,_RNvMNtNtCs7iCqo0KpDVZ_20rain_tracker_service9importers14excel_importerNtB2_13ExcelImporter10parse_date
FN:252,_RNvMNtNtCs7iCqo0KpDVZ_20rain_tracker_service9importers14excel_importerNtB2_13ExcelImporter14parse_rainfall
FN:175,_RNvMNtNtCs7iCqo0KpDVZ_20rain_tracker_service9importers14excel_importerNtB2_13ExcelImporter15parse_gauge_ids
FN:135,_RNvMNtNtCs7iCqo0KpDVZ_20rain_tracker_service9importers14excel_importerNtB2_13ExcelImporter16parse_all_months
FN:58,_RNvMNtNtCs7iCqo0KpDVZ_20rain_tracker_service9importers14excel_importerNtB2_13ExcelImporter17parse_month_sheet
FN:42,_RINvMNtNtCs7iCqo0KpDVZ_20rain_tracker_service9importers14excel_importerNtB3_13ExcelImporter3newNtNtCsbWmXECNiIxc_5alloc6string6StringECseMnIAmPHxH4_19excel_importer_test
FN:42,_RINvMNtNtCs7iCqo0KpDVZ_20rain_tracker_service9importers14excel_importerNtB3_13ExcelImporter3newReECseMnIAmPHxH4_19excel_importer_test
FN:42,_RINvMNtNtCs7iCqo0KpDVZ_20rain_tracker_service9importers14excel_importerNtB3_13ExcelImporter3newRNtNtCsbWmXECNiIxc_5alloc6string6StringECs30uj6WIuzt3_17historical_import
FN:224,_RNCNvMNtNtCs4I6j3VtXKYU_20rain_tracker_service9importers14excel_importerNtB4_13ExcelImporter10parse_date0B8_
FN:229,_RNCNvMNtNtCs4I6j3VtXKYU_20rain_tracker_service9importers14excel_importerNtB4_13ExcelImporter10parse_dates_0B8_
FN:275,_RNCNvMNtNtCs4I6j3VtXKYU_20rain_tracker_service9importers14excel_importerNtB4_13ExcelImporter14parse_rainfall0B8_
FN:213,_RNvMNtNtCs4I6j3VtXKYU_20rain_tracker_service9importers14excel_importerNtB2_13ExcelImporter10parse_date
FN:252,_RNvMNtNtCs4I6j3VtXKYU_20rain_tracker_service9importers14excel_importerNtB2_13ExcelImporter14parse_rainfall
FN:175,_RNvMNtNtCs4I6j3VtXKYU_20rain_tracker_service9importers14excel_importerNtB2_13ExcelImporter15parse_gauge_ids
FN:135,_RNvMNtNtCs4I6j3VtXKYU_20rain_tracker_service9importers14excel_importerNtB2_13ExcelImporter16parse_all_months
FN:58,_RNvMNtNtCs4I6j3VtXKYU_20rain_tracker_service9importers14excel_importerNtB2_13ExcelImporter17parse_month_sheet
FN:42,_RINvMNtNtCs4I6j3VtXKYU_20rain_tracker_service9importers14excel_importerNtB3_13ExcelImporter3newReEB7_
FN:296,_RNvNtNtNtCs4I6j3VtXKYU_20rain_tracker_service9importers14excel_importer5testss_28test_excel_importer_creation
FNDA:0,_RINvMNtNtCs7iCqo0KpDVZ_20rain_tracker_service9importers14excel_importerNtB3_13ExcelImporter3newpEB7_
FNDA:0,_RNCNvMNtNtCs7iCqo0KpDVZ_20rain_tracker_service9importers14excel_importerNtB4_13ExcelImporter10parse_date0B8_
FNDA:1395,_RNCNvMNtNtCs7iCqo0KpDVZ_20rain_tracker_service9importers14excel_importerNtB4_13ExcelImporter10parse_dates_0B8_
FNDA:0,_RNCNvMNtNtCs7iCqo0KpDVZ_20rain_tracker_service9importers14excel_importerNtB4_13ExcelImporter14parse_rainfall0B8_
FNDA:1421,_RNvMNtNtCs7iCqo0KpDVZ_20rain_tracker_service9importers14excel_importerNtB2_13ExcelImporter10parse_date
FNDA:504990,_RNvMNtNtCs7iCqo0KpDVZ_20rain_tracker_service9importers14excel_importerNtB2_13ExcelImporter14parse_rainfall
FNDA:71,_RNvMNtNtCs7iCqo0KpDVZ_20rain_tracker_service9importers14excel_importerNtB2_13ExcelImporter15parse_gauge_ids
FNDA:5,_RNvMNtNtCs7iCqo0KpDVZ_20rain_tracker_service9importers14excel_importerNtB2_13ExcelImporter16parse_all_months
FNDA:73,_RNvMNtNtCs7iCqo0KpDVZ_20rain_tracker_service9importers14excel_importerNtB2_13ExcelImporter17parse_month_sheet
FNDA:2,_RINvMNtNtCs7iCqo0KpDVZ_20rain_tracker_service9importers14excel_importerNtB3_13ExcelImporter3newNtNtCsbWmXECNiIxc_5alloc6string6StringECseMnIAmPHxH4_19excel_importer_test
FNDA:18,_RINvMNtNtCs7iCqo0KpDVZ_20rain_tracker_service9importers14excel_importerNtB3_13ExcelImporter3newReECseMnIAmPHxH4_19excel_importer_test
FNDA:0,_RINvMNtNtCs7iCqo0KpDVZ_20rain_tracker_service9importers14excel_importerNtB3_13ExcelImporter3newRNtNtCsbWmXECNiIxc_5alloc6string6StringECs30uj6WIuzt3_17historical_import
FNDA:0,_RNCNvMNtNtCs4I6j3VtXKYU_20rain_tracker_service9importers14excel_importerNtB4_13ExcelImporter10parse_date0B8_
FNDA:0,_RNCNvMNtNtCs4I6j3VtXKYU_20rain_tracker_service9importers14excel_importerNtB4_13ExcelImporter10parse_dates_0B8_
FNDA:0,_RNCNvMNtNtCs4I6j3VtXKYU_20rain_tracker_service9importers14excel_importerNtB4_13ExcelImporter14parse_rainfall0B8_
FNDA:0,_RNvMNtNtCs4I6j3VtXKYU_20rain_tracker_service9importers14excel_importerNtB2_13ExcelImporter10parse_date
FNDA:0,_RNvMNtNtCs4I6j3VtXKYU_20rain_tracker_service9importers14excel_importerNtB2_13ExcelImporter14parse_rainfall
FNDA:0,_RNvMNtNtCs4I6j3VtXKYU_20rain_tracker_service9importers14excel_importerNtB2_13ExcelImporter15parse_gauge_ids
FNDA:0,_RNvMNtNtCs4I6j3VtXKYU_20rain_tracker_service9importers14excel_importerNtB2_13ExcelImporter16parse_all_months
FNDA:0,_RNvMNtNtCs4I6j3VtXKYU_20rain_tracker_service9importers14excel_importerNtB2_13ExcelImporter17parse_month_sheet
FNDA:1,_RINvMNtNtCs4I6j3VtXKYU_20rain_tracker_service9importers14excel_importerNtB3_13ExcelImporter3newReEB7_
FNDA:1,_RNvNtNtNtCs4I6j3VtXKYU_20rain_tracker_service9importers14excel_importer5testss_28test_excel_importer_creation
FNF:10
FNH:8
DA:42,21
DA:43,21
DA:44,21
DA:45,21
DA:46,21
DA:58,73
DA:59,73
DA:60,73
DA:61,73
DA:62,73
DA:65,73
DA:66,72
DA:67,1
DA:71,72
DA:72,71
DA:73,1
DA:76,71
DA:79,71
DA:80,71
DA:81,0
DA:82,0
DA:88,1466
DA:90,1421
DA:91,0
DA:92,0
DA:93,0
DA:94,0
DA:95,1421
DA:98,1421
DA:99,1395
DA:101,26
DA:102,26
DA:107,504990
DA:108,504990
DA:110,504990
DA:112,502098
DA:113,53602
DA:114,53602
DA:115,53602
DA:116,53602
DA:117,53602
DA:118,53602
DA:119,448496
DA:120,2892
DA:124,71
DA:125,0
DA:126,0
DA:129,71
DA:130,73
DA:135,5
DA:136,5
DA:137,5
DA:138,5
DA:139,5
DA:140,5
DA:141,5
DA:143,5
DA:145,65
DA:146,60
DA:147,60
DA:148,60
DA:149,0
DA:151,0
DA:153,60
DA:156,0
DA:157,0
DA:160,0
DA:162,0
DA:166,5
DA:167,0
DA:168,0
DA:171,5
DA:172,5
DA:175,71
DA:176,71
DA:177,71
DA:178,71
DA:179,71
DA:180,71
DA:183,25702
DA:184,25702
DA:185,0
DA:186,0
DA:187,0
DA:188,25702
DA:189,25702
DA:190,25702
DA:191,0
DA:192,0
DA:193,0
DA:194,0
DA:195,0
DA:198,0
DA:200,0
DA:205,71
DA:206,0
DA:207,71
DA:209,71
DA:210,71
DA:213,1421
DA:214,1421
DA:215,1421
DA:216,1421
DA:217,1421
DA:218,1421
DA:219,1421
DA:220,0
DA:222,0
DA:223,0
DA:224,0
DA:226,1395
DA:228,1395
DA:229,1395
DA:231,0
DA:233,0
DA:234,0
DA:235,0
DA:237,0
DA:239,0
DA:240,0
DA:242,26
DA:243,0
DA:244,0
DA:245,0
DA:246,0
DA:247,0
DA:249,1421
DA:252,504990
DA:253,504990
DA:254,504990
DA:255,504990
DA:256,504990
DA:257,504990
DA:258,504990
DA:259,502098
DA:260,0
DA:261,2892
DA:262,2892
DA:264,2892
DA:265,2892
DA:266,2892
DA:267,2892
DA:269,2892
DA:271,0
DA:272,0
DA:273,0
DA:274,0
DA:275,0
DA:276,0
DA:277,0
DA:278,0
DA:281,0
DA:282,0
DA:283,0
DA:284,0
DA:285,0
DA:286,0
DA:288,504990
DA:296,1
DA:297,1
DA:298,1
DA:299,1
BRF:0
BRH:0
LF:164
LH:105
end_of_record
SF:/Users/terry/RustroverProjects/rain-tracker-service/src/importers/pdf_importer.rs
FN:30,_RINvMNtNtCs7iCqo0KpDVZ_20rain_tracker_service9importers12pdf_importerNtB3_11PdfImporter3newReECseMYvIYoIfwb_12check_gauges
FN:30,_RINvMNtNtCs7iCqo0KpDVZ_20rain_tracker_service9importers12pdf_importerNtB3_11PdfImporter3newpEB7_
FN:255,_RNvMNtNtCs7iCqo0KpDVZ_20rain_tracker_service9importers12pdf_importerNtB2_11PdfImporter10parse_date
FN:53,_RNvMNtNtCs7iCqo0KpDVZ_20rain_tracker_service9importers12pdf_importerNtB2_11PdfImporter10parse_text
FN:302,_RNvMNtNtCs7iCqo0KpDVZ_20rain_tracker_service9importers12pdf_importerNtB2_11PdfImporter14parse_rainfall
FN:37,_RNvMNtNtCs7iCqo0KpDVZ_20rain_tracker_service9importers12pdf_importerNtB2_11PdfImporter15parse_all_pages
FN:175,_RNvMNtNtCs7iCqo0KpDVZ_20rain_tracker_service9importers12pdf_importerNtB2_11PdfImporter15parse_gauge_ids
FN:203,_RNvMNtNtCs7iCqo0KpDVZ_20rain_tracker_service9importers12pdf_importerNtB2_11PdfImporter19parse_daily_reading
FN:267,_RNCNvMNtNtCs7iCqo0KpDVZ_20rain_tracker_service9importers12pdf_importerNtB4_11PdfImporter10parse_date0B8_
FN:279,_RNCNvMNtNtCs7iCqo0KpDVZ_20rain_tracker_service9importers12pdf_importerNtB4_11PdfImporter10parse_dates0_0B8_
FN:289,_RNCNvMNtNtCs7iCqo0KpDVZ_20rain_tracker_service9importers12pdf_importerNtB4_11PdfImporter10parse_dates1_0B8_
FN:272,_RNCNvMNtNtCs7iCqo0KpDVZ_20rain_tracker_service9importers12pdf_importerNtB4_11PdfImporter10parse_dates_0B8_
FN:312,_RNCNvMNtNtCs7iCqo0KpDVZ_20rain_tracker_service9importers12pdf_importerNtB4_11PdfImporter14parse_rainfall0B8_
FN:46,_RNCNvMNtNtCs7iCqo0KpDVZ_20rain_tracker_service9importers12pdf_importerNtB4_11PdfImporter15parse_all_pages0B8_
FN:182,_RNCNvMNtNtCs7iCqo0KpDVZ_20rain_tracker_service9importers12pdf_importerNtB4_11PdfImporter15parse_gauge_ids0B8_
FN:30,_RINvMNtNtCs7iCqo0KpDVZ_20rain_tracker_service9importers12pdf_importerNtB3_11PdfImporter3newRNtNtCsbWmXECNiIxc_5alloc6string6StringECs30uj6WIuzt3_17historical_import
FN:46,_RNCNvMNtNtCs4I6j3VtXKYU_20rain_tracker_service9importers12pdf_importerNtB4_11PdfImporter15parse_all_pages0B8_
FN:53,_RNvMNtNtCs4I6j3VtXKYU_20rain_tracker_service9importers12pdf_importerNtB2_11PdfImporter10parse_text
FN:37,_RNvMNtNtCs4I6j3VtXKYU_20rain_tracker_service9importers12pdf_importerNtB2_11PdfImporter15parse_all_pages
FN:203,_RNvMNtNtCs4I6j3VtXKYU_20rain_tracker_service9importers12pdf_importerNtB2_11PdfImporter19parse_daily_reading
FN:255,_RNvMNtNtCs4I6j3VtXKYU_20rain_tracker_service9importers12pdf_importerNtB2_11PdfImporter10parse_date
FN:302,_RNvMNtNtCs4I6j3VtXKYU_20rain_tracker_service9importers12pdf_importerNtB2_11PdfImporter14parse_rainfall
FN:175,_RNvMNtNtCs4I6j3VtXKYU_20rain_tracker_service9importers12pdf_importerNtB2_11PdfImporter15parse_gauge_ids
FN:30,_RINvMNtNtCs4I6j3VtXKYU_20rain_tracker_service9importers12pdf_importerNtB3_11PdfImporter3newReEB7_
FN:267,_RNCNvMNtNtCs4I6j3VtXKYU_20rain_tracker_service9importers12pdf_importerNtB4_11PdfImporter10parse_date0B8_
FN:279,_RNCNvMNtNtCs4I6j3VtXKYU_20rain_tracker_service9importers12pdf_importerNtB4_11PdfImporter10parse_dates0_0B8_
FN:289,_RNCNvMNtNtCs4I6j3VtXKYU_20rain_tracker_service9importers12pdf_importerNtB4_11PdfImporter10parse_dates1_0B8_
FN:272,_RNCNvMNtNtCs4I6j3VtXKYU_20rain_tracker_service9importers12pdf_importerNtB4_11PdfImporter10parse_dates_0B8_
FN:312,_RNCNvMNtNtCs4I6j3VtXKYU_20rain_tracker_service9importers12pdf_importerNtB4_11PdfImporter14parse_rainfall0B8_
FN:182,_RNCNvMNtNtCs4I6j3VtXKYU_20rain_tracker_service9importers12pdf_importerNtB4_11PdfImporter15parse_gauge_ids0B8_
FN:341,_RNvNtNtNtCs4I6j3VtXKYU_20rain_tracker_service9importers12pdf_importer5testss_15test_parse_date
FN:351,_RNvNtNtNtCs4I6j3VtXKYU_20rain_tracker_service9importers12pdf_importer5testss_19test_parse_rainfall
FN:385,_RNvNtNtNtCs4I6j3VtXKYU_20rain_tracker_service9importers12pdf_importer5testss_20test_parse_gauge_ids
FNDA:0,_RINvMNtNtCs7iCqo0KpDVZ_20rain_tracker_service9importers12pdf_importerNtB3_11PdfImporter3newReECseMYvIYoIfwb_12check_gauges
FNDA:0,_RINvMNtNtCs7iCqo0KpDVZ_20rain_tracker_service9importers12pdf_importerNtB3_11PdfImporter3newpEB7_
FNDA:0,_RNvMNtNtCs7iCqo0KpDVZ_20rain_tracker_service9importers12pdf_importerNtB2_11PdfImporter10parse_date
FNDA:0,_RNvMNtNtCs7iCqo0KpDVZ_20rain_tracker_service9importers12pdf_importerNtB2_11PdfImporter10parse_text
FNDA:0,_RNvMNtNtCs7iCqo0KpDVZ_20rain_tracker_service9importers12pdf_importerNtB2_11PdfImporter14parse_rainfall
FNDA:0,_RNvMNtNtCs7iCqo0KpDVZ_20rain_tracker_service9importers12pdf_importerNtB2_11PdfImporter15parse_all_pages
FNDA:0,_RNvMNtNtCs7iCqo0KpDVZ_20rain_tracker_service9importers12pdf_importerNtB2_11PdfImporter15parse_gauge_ids
FNDA:0,_RNvMNtNtCs7iCqo0KpDVZ_20rain_tracker_service9importers12pdf_importerNtB2_11PdfImporter19parse_daily_reading
FNDA:0,_RNCNvMNtNtCs7iCqo0KpDVZ_20rain_tracker_service9importers12pdf_importerNtB4_11PdfImporter10parse_date0B8_
FNDA:0,_RNCNvMNtNtCs7iCqo0KpDVZ_20rain_tracker_service9importers12pdf_importerNtB4_11PdfImporter10parse_dates0_0B8_
FNDA:0,_RNCNvMNtNtCs7iCqo0KpDVZ_20rain_tracker_service9importers12pdf_importerNtB4_11PdfImporter10parse_dates1_0B8_
FNDA:0,_RNCNvMNtNtCs7iCqo0KpDVZ_20rain_tracker_service9importers12pdf_importerNtB4_11PdfImporter10parse_dates_0B8_
FNDA:0,_RNCNvMNtNtCs7iCqo0KpDVZ_20rain_tracker_service9importers12pdf_importerNtB4_11PdfImporter14parse_rainfall0B8_
FNDA:0,_RNCNvMNtNtCs7iCqo0KpDVZ_20rain_tracker_service9importers12pdf_importerNtB4_11PdfImporter15parse_all_pages0B8_
FNDA:0,_RNCNvMNtNtCs7iCqo0KpDVZ_20rain_tracker_service9importers12pdf_importerNtB4_11PdfImporter15parse_gauge_ids0B8_
FNDA:0,_RINvMNtNtCs7iCqo0KpDVZ_20rain_tracker_service9importers12pdf_importerNtB3_11PdfImporter3newRNtNtCsbWmXECNiIxc_5alloc6string6StringECs30uj6WIuzt3_17historical_import
FNDA:0,_RNCNvMNtNtCs4I6j3VtXKYU_20rain_tracker_service9importers12pdf_importerNtB4_11PdfImporter15parse_all_pages0B8_
FNDA:0,_RNvMNtNtCs4I6j3VtXKYU_20rain_tracker_service9importers12pdf_importerNtB2_11PdfImporter10parse_text
FNDA:0,_RNvMNtNtCs4I6j3VtXKYU_20rain_tracker_service9importers12pdf_importerNtB2_11PdfImporter15parse_all_pages
FNDA:0,_RNvMNtNtCs4I6j3VtXKYU_20rain_tracker_service9importers12pdf_importerNtB2_11PdfImporter19parse_daily_reading
FNDA:1,_RNvMNtNtCs4I6j3VtXKYU_20rain_tracker_service9importers12pdf_importerNtB2_11PdfImporter10parse_date
FNDA:11,_RNvMNtNtCs4I6j3VtXKYU_20rain_tracker_service9importers12pdf_importerNtB2_11PdfImporter14parse_rainfall
FNDA:1,_RNvMNtNtCs4I6j3VtXKYU_20rain_tracker_service9importers12pdf_importerNtB2_11PdfImporter15parse_gauge_ids
FNDA:3,_RINvMNtNtCs4I6j3VtXKYU_20rain_tracker_service9importers12pdf_importerNtB3_11PdfImporter3newReEB7_
FNDA:0,_RNCNvMNtNtCs4I6j3VtXKYU_20rain_tracker_service9importers12pdf_importerNtB4_11PdfImporter10parse_date0B8_
FNDA:0,_RNCNvMNtNtCs4I6j3VtXKYU_20rain_tracker_service9importers12pdf_importerNtB4_11PdfImporter10parse_dates0_0B8_
FNDA:0,_RNCNvMNtNtCs4I6j3VtXKYU_20rain_tracker_service9importers12pdf_importerNtB4_11PdfImporter10parse_dates1_0B8_
FNDA:0,_RNCNvMNtNtCs4I6j3VtXKYU_20rain_tracker_service9importers12pdf_importerNtB4_11PdfImporter10parse_dates_0B8_
FNDA:4,_RNCNvMNtNtCs4I6j3VtXKYU_20rain_tracker_service9importers12pdf_importerNtB4_11PdfImporter14parse_rainfall0B8_
FNDA:8,_RNCNvMNtNtCs4I6j3VtXKYU_20rain_tracker_service9importers12pdf_importerNtB4_11PdfImporter15parse_gauge_ids0B8_
FNDA:1,_RNvNtNtNtCs4I6j3VtXKYU_20rain_tracker_service9importers12pdf_importer5testss_15test_parse_date
FNDA:1,_RNvNtNtNtCs4I6j3VtXKYU_20rain_tracker_service9importers12pdf_importer5testss_19test_parse_rainfall
FNDA:1,_RNvNtNtNtCs4I6j3VtXKYU_20rain_tracker_service9importers12pdf_importer5testss_20test_parse_gauge_ids
FNF:17
FNH:9
DA:30,3
DA:31,3
DA:32,3
DA:33,3
DA:34,3
DA:37,0
DA:38,0
DA:39,0
DA:40,0
DA:41,0
DA:42,0
DA:45,0
DA:46,0
DA:49,0
DA:50,0
DA:53,0
DA:54,0
DA:55,0
DA:56,0
DA:57,0
DA:58,0
DA:59,0
DA:60,0
DA:62,0
DA:63,0
DA:64,0
DA:69,0
DA:70,0
DA:72,0
DA:75,0
DA:76,0
DA:77,0
DA:78,0
DA:79,0
DA:80,0
DA:83,0
DA:84,0
DA:86,0
DA:87,0
DA:90,0
DA:91,0
DA:92,0
DA:93,0
DA:95,0
DA:96,0
DA:97,0
DA:100,0
DA:101,0
DA:102,0
DA:104,0
DA:107,0
DA:108,0
DA:109,0
DA:112,0
DA:113,0
DA:114,0
DA:117,0
DA:118,0
DA:119,0
DA:120,0
DA:121,0
DA:122,0
DA:124,0
DA:126,0
DA:127,0
DA:128,0
DA:129,0
DA:130,0
DA:131,0
DA:134,0
DA:135,0
DA:136,0
DA:137,0
DA:138,0
DA:139,0
DA:140,0
DA:141,0
DA:147,0
DA:150,0
DA:151,0
DA:154,0
DA:157,0
DA:158,0
DA:160,0
DA:161,0
DA:162,0
DA:163,0
DA:166,0
DA:167,0
DA:168,0
DA:170,0
DA:171,0
DA:175,1
DA:176,1
DA:179,1
DA:180,1
DA:181,1
DA:182,8
DA:184,8
DA:185,8
DA:187,0
DA:189,8
DA:190,1
DA:192,1
DA:193,0
DA:194,0
DA:195,0
DA:196,1
DA:198,1
DA:199,1
DA:203,0
DA:204,0
DA:205,0
DA:206,0
DA:207,0
DA:208,0
DA:209,0
DA:210,0
DA:212,0
DA:213,0
DA:214,0
DA:217,0
DA:218,0
DA:221,0
DA:222,0
DA:223,0
DA:224,0
DA:226,0
DA:229,0
DA:230,0
DA:231,0
DA:232,0
DA:235,0
DA:237,0
DA:239,0
DA:240,0
DA:241,0
DA:242,0
DA:243,0
DA:244,0
DA:245,0
DA:246,0
DA:247,0
DA:250,0
DA:251,0
DA:255,1
DA:256,1
DA:258,1
DA:259,0
DA:260,0
DA:261,0
DA:262,1
DA:264,1
DA:265,1
DA:266,1
DA:267,1
DA:269,1
DA:270,1
DA:271,1
DA:272,1
DA:276,1
DA:277,1
DA:278,1
DA:279,1
DA:281,1
DA:283,1
DA:284,1
DA:286,0
DA:289,1
DA:290,0
DA:291,0
DA:292,1
DA:302,11
DA:304,11
DA:307,11
DA:309,4
DA:310,4
DA:311,4
DA:312,4
DA:314,7
DA:318,11
DA:319,2
DA:320,9
DA:324,9
DA:325,3
DA:327,6
DA:331,9
DA:332,9
DA:333,11
DA:341,1
DA:342,1
DA:344,1
DA:345,1
DA:346,1
DA:347,1
DA:348,1
DA:351,1
DA:352,1
DA:355,1
DA:356,1
DA:357,1
DA:358,1
DA:359,1
DA:360,1
DA:363,1
DA:364,1
DA:365,1
DA:367,1
DA:368,1
DA:369,1
DA:371,1
DA:372,1
DA:373,1
DA:377,1
DA:378,1
DA:379,1
DA:380,1
DA:382,1
DA:385,1
DA:386,1
DA:388,1
DA:389,1
DA:390,1
DA:392,1
DA:393,1
DA:394,1
DA:395,1
BRF:0
BRH:0
LF:234
LH:97
end_of_record
SF:/Users/terry/RustroverProjects/rain-tracker-service/src/services/fopr_import_service.rs
FN:353,_RNCNCNCNvMNtNtCs7iCqo0KpDVZ_20rain_tracker_service8services19fopr_import_serviceNtB8_17FoprImportService10job_exists000Bc_
FN:84,_RNCNCNCNvMNtNtCs7iCqo0KpDVZ_20rain_tracker_service8services19fopr_import_serviceNtB8_17FoprImportService11import_fopr000Bc_
FN:123,_RNCNCNCNvMNtNtCs7iCqo0KpDVZ_20rain_tracker_service8services19fopr_import_serviceNtB8_17FoprImportService11import_fopr00s0_0Bc_
FN:132,_RNCNCNCNvMNtNtCs7iCqo0KpDVZ_20rain_tracker_service8services19fopr_import_serviceNtB8_17FoprImportService11import_fopr00s1_0Bc_
FN:151,_RNCNCNCNvMNtNtCs7iCqo0KpDVZ_20rain_tracker_service8services19fopr_import_serviceNtB8_17FoprImportService11import_fopr00s2_0Bc_
FN:172,_RNCNCNCNvMNtNtCs7iCqo0KpDVZ_20rain_tracker_service8services19fopr_import_serviceNtB8_17FoprImportService11import_fopr00s3_0Bc_
FN:114,_RNCNCNCNvMNtNtCs7iCqo0KpDVZ_20rain_tracker_service8services19fopr_import_serviceNtB8_17FoprImportService11import_fopr00s_0Bc_
FN:261,_RNCNCNCNvMNtNtCs7iCqo0KpDVZ_20rain_tracker_service8services19fopr_import_serviceNtB8_17FoprImportService20insert_readings_bulk000Bc_
FN:275,_RNCNCNCNvMNtNtCs7iCqo0KpDVZ_20rain_tracker_service8services19fopr_import_serviceNtB8_17FoprImportService20insert_readings_bulk00s_0Bc_
FN:307,_RNCNCNCNvMNtNtCs7iCqo0KpDVZ_20rain_tracker_service8services19fopr_import_serviceNtB8_17FoprImportService29recalculate_monthly_summaries000Bc_
FN:352,_RNCNvMNtNtCs7iCqo0KpDVZ_20rain_tracker_service8services19fopr_import_serviceNtB4_17FoprImportService10job_exists0B8_
FN:68,_RNCNvMNtNtCs7iCqo0KpDVZ_20rain_tracker_service8services19fopr_import_serviceNtB4_17FoprImportService11import_fopr0B8_
FN:246,_RNCNvMNtNtCs7iCqo0KpDVZ_20rain_tracker_service8services19fopr_import_serviceNtB4_17FoprImportService20insert_readings_bulk0B8_
FN:294,_RNCNvMNtNtCs7iCqo0KpDVZ_20rain_tracker_service8services19fopr_import_serviceNtB4_17FoprImportService29recalculate_monthly_summaries0B8_
FN:84,_RNCNCNCNvMNtNtCs7iCqo0KpDVZ_20rain_tracker_service8services19fopr_import_serviceNtB8_17FoprImportService11import_fopr000Cs3PAmBzODhhi_19error_handling_test
FN:123,_RNCNCNCNvMNtNtCs7iCqo0KpDVZ_20rain_tracker_service8services19fopr_import_serviceNtB8_17FoprImportService11import_fopr00s0_0Cs3PAmBzODhhi_19error_handling_test
FN:132,_RNCNCNCNvMNtNtCs7iCqo0KpDVZ_20rain_tracker_service8services19fopr_import_serviceNtB8_17FoprImportService11import_fopr00s1_0Cs3PAmBzODhhi_19error_handling_test
FN:151,_RNCNCNCNvMNtNtCs7iCqo0KpDVZ_20rain_tracker_service8services19fopr_import_serviceNtB8_17FoprImportService11import_fopr00s2_0Cs3PAmBzODhhi_19error_handling_test
FN:172,_RNCNCNCNvMNtNtCs7iCqo0KpDVZ_20rain_tracker_service8services19fopr_import_serviceNtB8_17FoprImportService11import_fopr00s3_0Cs3PAmBzODhhi_19error_handling_test
FN:114,_RNCNCNCNvMNtNtCs7iCqo0KpDVZ_20rain_tracker_service8services19fopr_import_serviceNtB8_17FoprImportService11import_fopr00s_0Cs3PAmBzODhhi_19error_handling_test
FN:261,_RNCNCNCNvMNtNtCs7iCqo0KpDVZ_20rain_tracker_service8services19fopr_import_serviceNtB8_17FoprImportService20insert_readings_bulk000Cs3PAmBzODhhi_19error_handling_test
FN:275,_RNCNCNCNvMNtNtCs7iCqo0KpDVZ_20rain_tracker_service8services19fopr_import_serviceNtB8_17FoprImportService20insert_readings_bulk00s_0Cs3PAmBzODhhi_19error_handling_test
FN:307,_RNCNCNCNvMNtNtCs7iCqo0KpDVZ_20rain_tracker_service8services19fopr_import_serviceNtB8_17FoprImportService29recalculate_monthly_summaries000Cs3PAmBzODhhi_19error_handling_test
FN:68,_RNCNvMNtNtCs7iCqo0KpDVZ_20rain_tracker_service8services19fopr_import_serviceNtB4_17FoprImportService11import_fopr0Cs3PAmBzODhhi_19error_handling_test
FN:246,_RNCNvMNtNtCs7iCqo0KpDVZ_20rain_tracker_service8services19fopr_import_serviceNtB4_17FoprImportService20insert_readings_bulk0Cs3PAmBzODhhi_19error_handling_test
FN:294,_RNCNvMNtNtCs7iCqo0KpDVZ_20rain_tracker_service8services19fopr_import_serviceNtB4_17FoprImportService29recalculate_monthly_summaries0Cs3PAmBzODhhi_19error_handling_test
FN:352,_RNvMNtNtCs7iCqo0KpDVZ_20rain_tracker_service8services19fopr_import_serviceNtB2_17FoprImportService10job_exists
FN:68,_RNvMNtNtCs7iCqo0KpDVZ_20rain_tracker_service8services19fopr_import_serviceNtB2_17FoprImportService11import_fopr
FN:327,_RNvMNtNtCs7iCqo0KpDVZ_20rain_tracker_service8services19fopr_import_serviceNtB2_17FoprImportService16month_date_range
FN:242,_RNvMNtNtCs7iCqo0KpDVZ_20rain_tracker_service8services19fopr_import_serviceNtB2_17FoprImportService20insert_readings_bulk
FN:291,_RNvMNtNtCs7iCqo0KpDVZ_20rain_tracker_service8services19fopr_import_serviceNtB2_17FoprImportService29recalculate_monthly_summaries
FN:48,_RNvMNtNtCs7iCqo0KpDVZ_20rain_tracker_service8services19fopr_import_serviceNtB2_17FoprImportService3new
FN:353,_RNCNCNCNvMNtNtCs7iCqo0KpDVZ_20rain_tracker_service8services19fopr_import_serviceNtB8_17FoprImportService10job_exists000CskhdQylLvBLq_24fopr_import_service_test
FN:84,_RNCNCNCNvMNtNtCs7iCqo0KpDVZ_20rain_tracker_service8services19fopr_import_serviceNtB8_17FoprImportService11import_fopr000CskhdQylLvBLq_24fopr_import_service_test
FN:123,_RNCNCNCNvMNtNtCs7iCqo0KpDVZ_20rain_tracker_service8services19fopr_import_serviceNtB8_17FoprImportService11import_fopr00s0_0CskhdQylLvBLq_24fopr_import_service_test
FN:132,_RNCNCNCNvMNtNtCs7iCqo0KpDVZ_20rain_tracker_service8services19fopr_import_serviceNtB8_17FoprImportService11import_fopr00s1_0CskhdQylLvBLq_24fopr_import_service_test
FN:151,_RNCNCNCNvMNtNtCs7iCqo0KpDVZ_20rain_tracker_service8services19fopr_import_serviceNtB8_17FoprImportService11import_fopr00s2_0CskhdQylLvBLq_24fopr_import_service_test
FN:172,_RNCNCNCNvMNtNtCs7iCqo0KpDVZ_20rain_tracker_service8services19fopr_import_serviceNtB8_17FoprImportService11import_fopr00s3_0CskhdQylLvBLq_24fopr_import_service_test
FN:114,_RNCNCNCNvMNtNtCs7iCqo0KpDVZ_20rain_tracker_service8services19fopr_import_serviceNtB8_17FoprImportService11import_fopr00s_0CskhdQylLvBLq_24fopr_import_service_test
FN:261,_RNCNCNCNvMNtNtCs7iCqo0KpDVZ_20rain_tracker_service8services19fopr_import_serviceNtB8_17FoprImportService20insert_readings_bulk000CskhdQylLvBLq_24fopr_import_service_test
FN:275,_RNCNCNCNvMNtNtCs7iCqo0KpDVZ_20rain_tracker_service8services19fopr_import_serviceNtB8_17FoprImportService20insert_readings_bulk00s_0CskhdQylLvBLq_24fopr_import_service_test
FN:307,_RNCNCNCNvMNtNtCs7iCqo0KpDVZ_20rain_tracker_service8services19fopr_import_serviceNtB8_17FoprImportService29recalculate_monthly_summaries000CskhdQylLvBLq_24fopr_import_service_test
FN:352,_RNCNvMNtNtCs7iCqo0KpDVZ_20rain_tracker_service8services19fopr_import_serviceNtB4_17FoprImportService10job_exists0CskhdQylLvBLq_24fopr_import_service_test
FN:68,_RNCNvMNtNtCs7iCqo0KpDVZ_20rain_tracker_service8services19fopr_import_serviceNtB4_17FoprImportService11import_fopr0CskhdQylLvBLq_24fopr_import_service_test
FN:246,_RNCNvMNtNtCs7iCqo0KpDVZ_20rain_tracker_service8services19fopr_import_serviceNtB4_17FoprImportService20insert_readings_bulk0CskhdQylLvBLq_24fopr_import_service_test
FN:294,_RNCNvMNtNtCs7iCqo0KpDVZ_20rain_tracker_service8services19fopr_import_serviceNtB4_17FoprImportService29recalculate_monthly_summaries0CskhdQylLvBLq_24fopr_import_service_test
FN:84,_RNCNCNCNvMNtNtCs7iCqo0KpDVZ_20rain_tracker_service8services19fopr_import_serviceNtB8_17FoprImportService11import_fopr000Csdpfhlhhwi2Y_20rain_tracker_service
FN:123,_RNCNCNCNvMNtNtCs7iCqo0KpDVZ_20rain_tracker_service8services19fopr_import_serviceNtB8_17FoprImportService11import_fopr00s0_0Csdpfhlhhwi2Y_20rain_tracker_service
FN:132,_RNCNCNCNvMNtNtCs7iCqo0KpDVZ_20rain_tracker_service8services19fopr_import_serviceNtB8_17FoprImportService11import_fopr00s1_0Csdpfhlhhwi2Y_20rain_tracker_service
FN:151,_RNCNCNCNvMNtNtCs7iCqo0KpDVZ_20rain_tracker_service8services19fopr_import_serviceNtB8_17FoprImportService11import_fopr00s2_0Csdpfhlhhwi2Y_20rain_tracker_service
FN:172,_RNCNCNCNvMNtNtCs7iCqo0KpDVZ_20rain_tracker_service8services19fopr_import_serviceNtB8_17FoprImportService11import_fopr00s3_0Csdpfhlhhwi2Y_20rain_tracker_service
FN:114,_RNCNCNCNvMNtNtCs7iCqo0KpDVZ_20rain_tracker_service8services19fopr_import_serviceNtB8_17FoprImportService11import_fopr00s_0Csdpfhlhhwi2Y_20rain_tracker_service
FN:261,_RNCNCNCNvMNtNtCs7iCqo0KpDVZ_20rain_tracker_service8services19fopr_import_serviceNtB8_17FoprImportService20insert_readings_bulk000Csdpfhlhhwi2Y_20rain_tracker_service
FN:275,_RNCNCNCNvMNtNtCs7iCqo0KpDVZ_20rain_tracker_service8services19fopr_import_serviceNtB8_17FoprImportService20insert_readings_bulk00s_0Csdpfhlhhwi2Y_20rain_tracker_service
FN:307,_RNCNCNCNvMNtNtCs7iCqo0KpDVZ_20rain_tracker_service8services19fopr_import_serviceNtB8_17FoprImportService29recalculate_monthly_summaries000Csdpfhlhhwi2Y_20rain_tracker_service
FN:68,_RNCNvMNtNtCs7iCqo0KpDVZ_20rain_tracker_service8services19fopr_import_serviceNtB4_17FoprImportService11import_fopr0Csdpfhlhhwi2Y_20rain_tracker_service
FN:246,_RNCNvMNtNtCs7iCqo0KpDVZ_20rain_tracker_service8services19fopr_import_serviceNtB4_17FoprImportService20insert_readings_bulk0Csdpfhlhhwi2Y_20rain_tracker_service
FN:294,_RNCNvMNtNtCs7iCqo0KpDVZ_20rain_tracker_service8services19fopr_import_serviceNtB4_17FoprImportService29recalculate_monthly_summaries0Csdpfhlhhwi2Y_20rain_tracker_service
FN:353,_RNCNCNCNvMNtNtCs4I6j3VtXKYU_20rain_tracker_service8services19fopr_import_serviceNtB8_17FoprImportService10job_exists000Bc_
FN:84,_RNCNCNCNvMNtNtCs4I6j3VtXKYU_20rain_tracker_service8services19fopr_import_serviceNtB8_17FoprImportService11import_fopr000Bc_
FN:123,_RNCNCNCNvMNtNtCs4I6j3VtXKYU_20rain_tracker_service8services19fopr_import_serviceNtB8_17FoprImportService11import_fopr00s0_0Bc_
FN:132,_RNCNCNCNvMNtNtCs4I6j3VtXKYU_20rain_tracker_service8services19fopr_import_serviceNtB8_17FoprImportService11import_fopr00s1_0Bc_
FN:151,_RNCNCNCNvMNtNtCs4I6j3VtXKYU_20rain_tracker_service8services19fopr_import_serviceNtB8_17FoprImportService11import_fopr00s2_0Bc_
FN:172,_RNCNCNCNvMNtNtCs4I6j3VtXKYU_20rain_tracker_service8services19fopr_import_serviceNtB8_17FoprImportService11import_fopr00s3_0Bc_
FN:114,_RNCNCNCNvMNtNtCs4I6j3VtXKYU_20rain_tracker_service8services19fopr_import_serviceNtB8_17FoprImportService11import_fopr00s_0Bc_
FN:261,_RNCNCNCNvMNtNtCs4I6j3VtXKYU_20rain_tracker_service8services19fopr_import_serviceNtB8_17FoprImportService20insert_readings_bulk000Bc_
FN:275,_RNCNCNCNvMNtNtCs4I6j3VtXKYU_20rain_tracker_service8services19fopr_import_serviceNtB8_17FoprImportService20insert_readings_bulk00s_0Bc_
FN:307,_RNCNCNCNvMNtNtCs4I6j3VtXKYU_20rain_tracker_service8services19fopr_import_serviceNtB8_17FoprImportService29recalculate_monthly_summaries000Bc_
FN:352,_RNCNvMNtNtCs4I6j3VtXKYU_20rain_tracker_service8services19fopr_import_serviceNtB4_17FoprImportService10job_exists0B8_
FN:68,_RNCNvMNtNtCs4I6j3VtXKYU_20rain_tracker_service8services19fopr_import_serviceNtB4_17FoprImportService11import_fopr0B8_
FN:246,_RNCNvMNtNtCs4I6j3VtXKYU_20rain_tracker_service8services19fopr_import_serviceNtB4_17FoprImportService20insert_readings_bulk0B8_
FN:294,_RNCNvMNtNtCs4I6j3VtXKYU_20rain_tracker_service8services19fopr_import_serviceNtB4_17FoprImportService29recalculate_monthly_summaries0B8_
FN:352,_RNvMNtNtCs4I6j3VtXKYU_20rain_tracker_service8services19fopr_import_serviceNtB2_17FoprImportService10job_exists
FN:68,_RNvMNtNtCs4I6j3VtXKYU_20rain_tracker_service8services19fopr_import_serviceNtB2_17FoprImportService11import_fopr
FN:327,_RNvMNtNtCs4I6j3VtXKYU_20rain_tracker_service8services19fopr_import_serviceNtB2_17FoprImportService16month_date_range
FN:242,_RNvMNtNtCs4I6j3VtXKYU_20rain_tracker_service8services19fopr_import_serviceNtB2_17FoprImportService20insert_readings_bulk
FN:291,_RNvMNtNtCs4I6j3VtXKYU_20rain_tracker_service8services19fopr_import_serviceNtB2_17FoprImportService29recalculate_monthly_summaries
FN:48,_RNvMNtNtCs4I6j3VtXKYU_20rain_tracker_service8services19fopr_import_serviceNtB2_17FoprImportService3new
FNDA:0,_RNCNCNCNvMNtNtCs7iCqo0KpDVZ_20rain_tracker_service8services19fopr_import_serviceNtB8_17FoprImportService10job_exists000Bc_
FNDA:0,_RNCNCNCNvMNtNtCs7iCqo0KpDVZ_20rain_tracker_service8services19fopr_import_serviceNtB8_17FoprImportService11import_fopr000Bc_
FNDA:0,_RNCNCNCNvMNtNtCs7iCqo0KpDVZ_20rain_tracker_service8services19fopr_import_serviceNtB8_17FoprImportService11import_fopr00s0_0Bc_
FNDA:0,_RNCNCNCNvMNtNtCs7iCqo0KpDVZ_20rain_tracker_service8services19fopr_import_serviceNtB8_17FoprImportService11import_fopr00s1_0Bc_
FNDA:0,_RNCNCNCNvMNtNtCs7iCqo0KpDVZ_20rain_tracker_service8services19fopr_import_serviceNtB8_17FoprImportService11import_fopr00s2_0Bc_
FNDA:0,_RNCNCNCNvMNtNtCs7iCqo0KpDVZ_20rain_tracker_service8services19fopr_import_serviceNtB8_17FoprImportService11import_fopr00s3_0Bc_
FNDA:0,_RNCNCNCNvMNtNtCs7iCqo0KpDVZ_20rain_tracker_service8services19fopr_import_serviceNtB8_17FoprImportService11import_fopr00s_0Bc_
FNDA:0,_RNCNCNCNvMNtNtCs7iCqo0KpDVZ_20rain_tracker_service8services19fopr_import_serviceNtB8_17FoprImportService20insert_readings_bulk000Bc_
FNDA:0,_RNCNCNCNvMNtNtCs7iCqo0KpDVZ_20rain_tracker_service8services19fopr_import_serviceNtB8_17FoprImportService20insert_readings_bulk00s_0Bc_
FNDA:0,_RNCNCNCNvMNtNtCs7iCqo0KpDVZ_20rain_tracker_service8services19fopr_import_serviceNtB8_17FoprImportService29recalculate_monthly_summaries000Bc_
FNDA:0,_RNCNvMNtNtCs7iCqo0KpDVZ_20rain_tracker_service8services19fopr_import_serviceNtB4_17FoprImportService10job_exists0B8_
FNDA:0,_RNCNvMNtNtCs7iCqo0KpDVZ_20rain_tracker_service8services19fopr_import_serviceNtB4_17FoprImportService11import_fopr0B8_
FNDA:0,_RNCNvMNtNtCs7iCqo0KpDVZ_20rain_tracker_service8services19fopr_import_serviceNtB4_17FoprImportService20insert_readings_bulk0B8_
FNDA:0,_RNCNvMNtNtCs7iCqo0KpDVZ_20rain_tracker_service8services19fopr_import_serviceNtB4_17FoprImportService29recalculate_monthly_summaries0B8_
FNDA:2,_RNCNCNCNvMNtNtCs7iCqo0KpDVZ_20rain_tracker_service8services19fopr_import_serviceNtB8_17FoprImportService11import_fopr000Cs3PAmBzODhhi_19error_handling_test
FNDA:0,_RNCNCNCNvMNtNtCs7iCqo0KpDVZ_20rain_tracker_service8services19fopr_import_serviceNtB8_17FoprImportService11import_fopr00s0_0Cs3PAmBzODhhi_19error_handling_test
FNDA:0,_RNCNCNCNvMNtNtCs7iCqo0KpDVZ_20rain_tracker_service8services19fopr_import_serviceNtB8_17FoprImportService11import_fopr00s1_0Cs3PAmBzODhhi_19error_handling_test
FNDA:0,_RNCNCNCNvMNtNtCs7iCqo0KpDVZ_20rain_tracker_service8services19fopr_import_serviceNtB8_17FoprImportService11import_fopr00s2_0Cs3PAmBzODhhi_19error_handling_test
FNDA:0,_RNCNCNCNvMNtNtCs7iCqo0KpDVZ_20rain_tracker_service8services19fopr_import_serviceNtB8_17FoprImportService11import_fopr00s3_0Cs3PAmBzODhhi_19error_handling_test
FNDA:0,_RNCNCNCNvMNtNtCs7iCqo0KpDVZ_20rain_tracker_service8services19fopr_import_serviceNtB8_17FoprImportService11import_fopr00s_0Cs3PAmBzODhhi_19error_handling_test
FNDA:0,_RNCNCNCNvMNtNtCs7iCqo0KpDVZ_20rain_tracker_service8services19fopr_import_serviceNtB8_17FoprImportService20insert_readings_bulk000Cs3PAmBzODhhi_19error_handling_test
FNDA:0,_RNCNCNCNvMNtNtCs7iCqo0KpDVZ_20rain_tracker_service8services19fopr_import_serviceNtB8_17FoprImportService20insert_readings_bulk00s_0Cs3PAmBzODhhi_19error_handling_test
FNDA:0,_RNCNCNCNvMNtNtCs7iCqo0KpDVZ_20rain_tracker_service8services19fopr_import_serviceNtB8_17FoprImportService29recalculate_monthly_summaries000Cs3PAmBzODhhi_19error_handling_test
FNDA:2,_RNCNvMNtNtCs7iCqo0KpDVZ_20rain_tracker_service8services19fopr_import_serviceNtB4_17FoprImportService11import_fopr0Cs3PAmBzODhhi_19error_handling_test
FNDA:0,_RNCNvMNtNtCs7iCqo0KpDVZ_20rain_tracker_service8services19fopr_import_serviceNtB4_17FoprImportService20insert_readings_bulk0Cs3PAmBzODhhi_19error_handling_test
FNDA:0,_RNCNvMNtNtCs7iCqo0KpDVZ_20rain_tracker_service8services19fopr_import_serviceNtB4_17FoprImportService29recalculate_monthly_summaries0Cs3PAmBzODhhi_19error_handling_test
FNDA:2,_RNvMNtNtCs7iCqo0KpDVZ_20rain_tracker_service8services19fopr_import_serviceNtB2_17FoprImportService10job_exists
FNDA:3,_RNvMNtNtCs7iCqo0KpDVZ_20rain_tracker_service8services19fopr_import_serviceNtB2_17FoprImportService11import_fopr
FNDA:0,_RNvMNtNtCs7iCqo0KpDVZ_20rain_tracker_service8services19fopr_import_serviceNtB2_17FoprImportService16month_date_range
FNDA:0,_RNvMNtNtCs7iCqo0KpDVZ_20rain_tracker_service8services19fopr_import_serviceNtB2_17FoprImportService20insert_readings_bulk
FNDA:0,_RNvMNtNtCs7iCqo0KpDVZ_20rain_tracker_service8services19fopr_import_serviceNtB2_17FoprImportService29recalculate_monthly_summaries
FNDA:12,_RNvMNtNtCs7iCqo0KpDVZ_20rain_tracker_service8services19fopr_import_serviceNtB2_17FoprImportService3new
FNDA:0,_RNCNCNCNvMNtNtCs7iCqo0KpDVZ_20rain_tracker_service8services19fopr_import_serviceNtB8_17FoprImportService10job_exists000CskhdQylLvBLq_24fopr_import_service_test
FNDA:1,_RNCNCNCNvMNtNtCs7iCqo0KpDVZ_20rain_tracker_service8services19fopr_import_serviceNtB8_17FoprImportService11import_fopr000CskhdQylLvBLq_24fopr_import_service_test
FNDA:0,_RNCNCNCNvMNtNtCs7iCqo0KpDVZ_20rain_tracker_service8services19fopr_import_serviceNtB8_17FoprImportService11import_fopr00s0_0CskhdQylLvBLq_24fopr_import_service_test
FNDA:0,_RNCNCNCNvMNtNtCs7iCqo0KpDVZ_20rain_tracker_service8services19fopr_import_serviceNtB8_17FoprImportService11import_fopr00s1_0CskhdQylLvBLq_24fopr_import_service_test
FNDA:0,_RNCNCNCNvMNtNtCs7iCqo0KpDVZ_20rain_tracker_service8services19fopr_import_serviceNtB8_17FoprImportService11import_fopr00s2_0CskhdQylLvBLq_24fopr_import_service_test
FNDA:0,_RNCNCNCNvMNtNtCs7iCqo0KpDVZ_20rain_tracker_service8services19fopr_import_serviceNtB8_17FoprImportService11import_fopr00s3_0CskhdQylLvBLq_24fopr_import_service_test
FNDA:0,_RNCNCNCNvMNtNtCs7iCqo0KpDVZ_20rain_tracker_service8services19fopr_import_serviceNtB8_17FoprImportService11import_fopr00s_0CskhdQylLvBLq_24fopr_import_service_test
FNDA:0,_RNCNCNCNvMNtNtCs7iCqo0KpDVZ_20rain_tracker_service8services19fopr_import_serviceNtB8_17FoprImportService20insert_readings_bulk000CskhdQylLvBLq_24fopr_import_service_test
FNDA:0,_RNCNCNCNvMNtNtCs7iCqo0KpDVZ_20rain_tracker_service8services19fopr_import_serviceNtB8_17FoprImportService20insert_readings_bulk00s_0CskhdQylLvBLq_24fopr_import_service_test
FNDA:0,_RNCNCNCNvMNtNtCs7iCqo0KpDVZ_20rain_tracker_service8services19fopr_import_serviceNtB8_17FoprImportService29recalculate_monthly_summaries000CskhdQylLvBLq_24fopr_import_service_test
FNDA:2,_RNCNvMNtNtCs7iCqo0KpDVZ_20rain_tracker_service8services19fopr_import_serviceNtB4_17FoprImportService10job_exists0CskhdQylLvBLq_24fopr_import_service_test
FNDA:1,_RNCNvMNtNtCs7iCqo0KpDVZ_20rain_tracker_service8services19fopr_import_serviceNtB4_17FoprImportService11import_fopr0CskhdQylLvBLq_24fopr_import_service_test
FNDA:0,_RNCNvMNtNtCs7iCqo0KpDVZ_20rain_tracker_service8services19fopr_import_serviceNtB4_17FoprImportService20insert_readings_bulk0CskhdQylLvBLq_24fopr_import_service_test
FNDA:0,_RNCNvMNtNtCs7iCqo0KpDVZ_20rain_tracker_service8services19fopr_import_serviceNtB4_17FoprImportService29recalculate_monthly_summaries0CskhdQylLvBLq_24fopr_import_service_test
FNDA:0,_RNCNCNCNvMNtNtCs7iCqo0KpDVZ_20rain_tracker_service8services19fopr_import_serviceNtB8_17FoprImportService11import_fopr000Csdpfhlhhwi2Y_20rain_tracker_service
FNDA:0,_RNCNCNCNvMNtNtCs7iCqo0KpDVZ_20rain_tracker_service8services19fopr_import_serviceNtB8_17FoprImportService11import_fopr00s0_0Csdpfhlhhwi2Y_20rain_tracker_service
FNDA:0,_RNCNCNCNvMNtNtCs7iCqo0KpDVZ_20rain_tracker_service8services19fopr_import_serviceNtB8_17FoprImportService11import_fopr00s1_0Csdpfhlhhwi2Y_20rain_tracker_service
FNDA:0,_RNCNCNCNvMNtNtCs7iCqo0KpDVZ_20rain_tracker_service8services19fopr_import_serviceNtB8_17FoprImportService11import_fopr00s2_0Csdpfhlhhwi2Y_20rain_tracker_service
FNDA:0,_RNCNCNCNvMNtNtCs7iCqo0KpDVZ_20rain_tracker_service8services19fopr_import_serviceNtB8_17FoprImportService11import_fopr00s3_0Csdpfhlhhwi2Y_20rain_tracker_service
FNDA:0,_RNCNCNCNvMNtNtCs7iCqo0KpDVZ_20rain_tracker_service8services19fopr_import_serviceNtB8_17FoprImportService11import_fopr00s_0Csdpfhlhhwi2Y_20rain_tracker_service
FNDA:0,_RNCNCNCNvMNtNtCs7iCqo0KpDVZ_20rain_tracker_service8services19fopr_import_serviceNtB8_17FoprImportService20insert_readings_bulk000Csdpfhlhhwi2Y_20rain_tracker_service
FNDA:0,_RNCNCNCNvMNtNtCs7iCqo0KpDVZ_20rain_tracker_service8services19fopr_import_serviceNtB8_17FoprImportService20insert_readings_bulk00s_0Csdpfhlhhwi2Y_20rain_tracker_service
FNDA:0,_RNCNCNCNvMNtNtCs7iCqo0KpDVZ_20rain_tracker_service8services19fopr_import_serviceNtB8_17FoprImportService29recalculate_monthly_summaries000Csdpfhlhhwi2Y_20rain_tracker_service
FNDA:0,_RNCNvMNtNtCs7iCqo0KpDVZ_20rain_tracker_service8services19fopr_import_serviceNtB4_17FoprImportService11import_fopr0Csdpfhlhhwi2Y_20rain_tracker_service
FNDA:0,_RNCNvMNtNtCs7iCqo0KpDVZ_20rain_tracker_service8services19fopr_import_serviceNtB4_17FoprImportService20insert_readings_bulk0Csdpfhlhhwi2Y_20rain_tracker_service
FNDA:0,_RNCNvMNtNtCs7iCqo0KpDVZ_20rain_tracker_service8services19fopr_import_serviceNtB4_17FoprImportService29recalculate_monthly_summaries0Csdpfhlhhwi2Y_20rain_tracker_service
FNDA:0,_RNCNCNCNvMNtNtCs4I6j3VtXKYU_20rain_tracker_service8services19fopr_import_serviceNtB8_17FoprImportService10job_exists000Bc_
FNDA:0,_RNCNCNCNvMNtNtCs4I6j3VtXKYU_20rain_tracker_service8services19fopr_import_serviceNtB8_17FoprImportService11import_fopr000Bc_
FNDA:0,_RNCNCNCNvMNtNtCs4I6j3VtXKYU_20rain_tracker_service8services19fopr_import_serviceNtB8_17FoprImportService11import_fopr00s0_0Bc_
FNDA:0,_RNCNCNCNvMNtNtCs4I6j3VtXKYU_20rain_tracker_service8services19fopr_import_serviceNtB8_17FoprImportService11import_fopr00s1_0Bc_
FNDA:0,_RNCNCNCNvMNtNtCs4I6j3VtXKYU_20rain_tracker_service8services19fopr_import_serviceNtB8_17FoprImportService11import_fopr00s2_0Bc_
FNDA:0,_RNCNCNCNvMNtNtCs4I6j3VtXKYU_20rain_tracker_service8services19fopr_import_serviceNtB8_17FoprImportService11import_fopr00s3_0Bc_
FNDA:0,_RNCNCNCNvMNtNtCs4I6j3VtXKYU_20rain_tracker_service8services19fopr_import_serviceNtB8_17FoprImportService11import_fopr00s_0Bc_
FNDA:0,_RNCNCNCNvMNtNtCs4I6j3VtXKYU_20rain_tracker_service8services19fopr_import_serviceNtB8_17FoprImportService20insert_readings_bulk000Bc_
FNDA:0,_RNCNCNCNvMNtNtCs4I6j3VtXKYU_20rain_tracker_service8services19fopr_import_serviceNtB8_17FoprImportService20insert_readings_bulk00s_0Bc_
FNDA:0,_RNCNCNCNvMNtNtCs4I6j3VtXKYU_20rain_tracker_service8services19fopr_import_serviceNtB8_17FoprImportService29recalculate_monthly_summaries000Bc_
FNDA:0,_RNCNvMNtNtCs4I6j3VtXKYU_20rain_tracker_service8services19fopr_import_serviceNtB4_17FoprImportService10job_exists0B8_
FNDA:0,_RNCNvMNtNtCs4I6j3VtXKYU_20rain_tracker_service8services19fopr_import_serviceNtB4_17FoprImportService11import_fopr0B8_
FNDA:0,_RNCNvMNtNtCs4I6j3VtXKYU_20rain_tracker_service8services19fopr_import_serviceNtB4_17FoprImportService20insert_readings_bulk0B8_
FNDA:0,_RNCNvMNtNtCs4I6j3VtXKYU_20rain_tracker_service8services19fopr_import_serviceNtB4_17FoprImportService29recalculate_monthly_summaries0B8_
FNDA:0,_RNvMNtNtCs4I6j3VtXKYU_20rain_tracker_service8services19fopr_import_serviceNtB2_17FoprImportService10job_exists
FNDA:0,_RNvMNtNtCs4I6j3VtXKYU_20rain_tracker_service8services19fopr_import_serviceNtB2_17FoprImportService11import_fopr
FNDA:0,_RNvMNtNtCs4I6j3VtXKYU_20rain_tracker_service8services19fopr_import_serviceNtB2_17FoprImportService16month_date_range
FNDA:0,_RNvMNtNtCs4I6j3VtXKYU_20rain_tracker_service8services19fopr_import_serviceNtB2_17FoprImportService20insert_readings_bulk
FNDA:0,_RNvMNtNtCs4I6j3VtXKYU_20rain_tracker_service8services19fopr_import_serviceNtB2_17FoprImportService29recalculate_monthly_summaries
FNDA:0,_RNvMNtNtCs4I6j3VtXKYU_20rain_tracker_service8services19fopr_import_serviceNtB2_17FoprImportService3new
FNF:20
FNH:6
DA:48,12
DA:49,12
DA:50,12
DA:51,12
DA:52,12
DA:53,12
DA:54,12
DA:55,12
DA:56,12
DA:68,3
DA:84,3
DA:85,3
DA:88,0
DA:90,3
DA:91,3
DA:114,0
DA:115,0
DA:118,0
DA:120,0
DA:121,0
DA:123,0
DA:124,0
DA:127,0
DA:129,0
DA:130,0
DA:132,0
DA:133,0
DA:136,0
DA:138,0
DA:139,0
DA:151,0
DA:152,0
DA:153,0
DA:156,0
DA:158,0
DA:159,0
DA:172,0
DA:173,0
DA:176,0
DA:178,0
DA:179,0
DA:234,3
DA:242,0
DA:243,0
DA:244,0
DA:245,0
DA:246,0
DA:261,0
DA:262,0
DA:263,0
DA:266,0
DA:268,0
DA:269,0
DA:275,0
DA:287,0
DA:291,0
DA:292,0
DA:293,0
DA:294,0
DA:307,0
DA:308,0
DA:309,0
DA:314,0
DA:316,0
DA:317,0
DA:322,0
DA:327,0
DA:328,0
DA:329,0
DA:330,0
DA:331,0
DA:333,0
DA:334,0
DA:336,0
DA:339,0
DA:340,0
DA:341,0
DA:342,0
DA:344,0
DA:345,0
DA:347,0
DA:348,0
DA:352,2
DA:353,0
DA:354,0
DA:355,0
DA:356,0
DA:357,2
BRF:0
BRH:0
LF:92
LH:19
end_of_record
SF:/Users/terry/RustroverProjects/rain-tracker-service/src/services/gauge_service.rs
FN:189,_RNCNCNCNvMs_NtNtCs7iCqo0KpDVZ_20rain_tracker_service8services13gauge_serviceNtBa_12GaugeService16upsert_summaries000Be_
FN:162,_RNCNCNCNvMs_NtNtCs7iCqo0KpDVZ_20rain_tracker_service8services13gauge_serviceNtBa_12GaugeService26handle_new_gauge_discovery000Be_
FN:184,_RNCNvMs_NtNtCs7iCqo0KpDVZ_20rain_tracker_service8services13gauge_serviceNtB6_12GaugeService16upsert_summaries0Ba_
FN:111,_RNCNvMs_NtNtCs7iCqo0KpDVZ_20rain_tracker_service8services13gauge_serviceNtB6_12GaugeService26handle_new_gauge_discovery0Ba_
FN:94,_RNCNvMs_NtNtCs7iCqo0KpDVZ_20rain_tracker_service8services13gauge_serviceNtB6_12GaugeService15get_gauge_by_id0Ba_
FN:66,_RNCNvMs_NtNtCs7iCqo0KpDVZ_20rain_tracker_service8services13gauge_serviceNtB6_12GaugeService20get_gauges_paginated0Ba_
FN:31,_RNvMNtNtCs7iCqo0KpDVZ_20rain_tracker_service8services13gauge_serviceNtB2_16PaginationParams5limit
FN:27,_RNvMNtNtCs7iCqo0KpDVZ_20rain_tracker_service8services13gauge_serviceNtB2_16PaginationParams6offset
FN:94,_RNvMs_NtNtCs7iCqo0KpDVZ_20rain_tracker_service8services13gauge_serviceNtB4_12GaugeService15get_gauge_by_id
FN:184,_RNvMs_NtNtCs7iCqo0KpDVZ_20rain_tracker_service8services13gauge_serviceNtB4_12GaugeService16upsert_summaries
FN:63,_RNvMs_NtNtCs7iCqo0KpDVZ_20rain_tracker_service8services13gauge_serviceNtB4_12GaugeService20get_gauges_paginated
FN:108,_RNvMs_NtNtCs7iCqo0KpDVZ_20rain_tracker_service8services13gauge_serviceNtB4_12GaugeService26handle_new_gauge_discovery
FN:55,_RNvMs_NtNtCs7iCqo0KpDVZ_20rain_tracker_service8services13gauge_serviceNtB4_12GaugeService3new
FN:18,_RNvNtNtCs7iCqo0KpDVZ_20rain_tracker_service8services13gauge_service12default_page
FN:22,_RNvNtNtCs7iCqo0KpDVZ_20rain_tracker_service8services13gauge_service17default_page_size
FN:189,_RNCNCNCNvMs_NtNtCs7iCqo0KpDVZ_20rain_tracker_service8services13gauge_serviceNtBa_12GaugeService16upsert_summaries000Cs3PAmBzODhhi_19error_handling_test
FN:162,_RNCNCNCNvMs_NtNtCs7iCqo0KpDVZ_20rain_tracker_service8services13gauge_serviceNtBa_12GaugeService26handle_new_gauge_discovery000Cs3PAmBzODhhi_19error_handling_test
FN:184,_RNCNvMs_NtNtCs7iCqo0KpDVZ_20rain_tracker_service8services13gauge_serviceNtB6_12GaugeService16upsert_summaries0Cs3PAmBzODhhi_19error_handling_test
FN:111,_RNCNvMs_NtNtCs7iCqo0KpDVZ_20rain_tracker_service8services13gauge_serviceNtB6_12GaugeService26handle_new_gauge_discovery0Cs3PAmBzODhhi_19error_handling_test
FN:189,_RNCNCNCNvMs_NtNtCs7iCqo0KpDVZ_20rain_tracker_service8services13gauge_serviceNtBa_12GaugeService16upsert_summaries000Csdpfhlhhwi2Y_20rain_tracker_service
FN:162,_RNCNCNCNvMs_NtNtCs7iCqo0KpDVZ_20rain_tracker_service8services13gauge_serviceNtBa_12GaugeService26handle_new_gauge_discovery000Csdpfhlhhwi2Y_20rain_tracker_service
FN:184,_RNCNvMs_NtNtCs7iCqo0KpDVZ_20rain_tracker_service8services13gauge_serviceNtB6_12GaugeService16upsert_summaries0Csdpfhlhhwi2Y_20rain_tracker_service
FN:111,_RNCNvMs_NtNtCs7iCqo0KpDVZ_20rain_tracker_service8services13gauge_serviceNtB6_12GaugeService26handle_new_gauge_discovery0Csdpfhlhhwi2Y_20rain_tracker_service
FN:189,_RNCNCNCNvMs_NtNtCs4I6j3VtXKYU_20rain_tracker_service8services13gauge_serviceNtBa_12GaugeService16upsert_summaries000Be_
FN:162,_RNCNCNCNvMs_NtNtCs4I6j3VtXKYU_20rain_tracker_service8services13gauge_serviceNtBa_12GaugeService26handle_new_gauge_discovery000Be_
FN:94,_RNCNvMs_NtNtCs4I6j3VtXKYU_20rain_tracker_service8services13gauge_serviceNtB6_12GaugeService15get_gauge_by_id0Ba_
FN:184,_RNCNvMs_NtNtCs4I6j3VtXKYU_20rain_tracker_service8services13gauge_serviceNtB6_12GaugeService16upsert_summaries0Ba_
FN:66,_RNCNvMs_NtNtCs4I6j3VtXKYU_20rain_tracker_service8services13gauge_serviceNtB6_12GaugeService20get_gauges_paginated0Ba_
FN:111,_RNCNvMs_NtNtCs4I6j3VtXKYU_20rain_tracker_service8services13gauge_serviceNtB6_12GaugeService26handle_new_gauge_discovery0Ba_
FN:31,_RNvMNtNtCs4I6j3VtXKYU_20rain_tracker_service8services13gauge_serviceNtB2_16PaginationParams5limit
FN:27,_RNvMNtNtCs4I6j3VtXKYU_20rain_tracker_service8services13gauge_serviceNtB2_16PaginationParams6offset
FN:94,_RNvMs_NtNtCs4I6j3VtXKYU_20rain_tracker_service8services13gauge_serviceNtB4_12GaugeService15get_gauge_by_id
FN:184,_RNvMs_NtNtCs4I6j3VtXKYU_20rain_tracker_service8services13gauge_serviceNtB4_12GaugeService16upsert_summaries
FN:63,_RNvMs_NtNtCs4I6j3VtXKYU_20rain_tracker_service8services13gauge_serviceNtB4_12GaugeService20get_gauges_paginated
FN:108,_RNvMs_NtNtCs4I6j3VtXKYU_20rain_tracker_service8services13gauge_serviceNtB4_12GaugeService26handle_new_gauge_discovery
FN:55,_RNvMs_NtNtCs4I6j3VtXKYU_20rain_tracker_service8services13gauge_serviceNtB4_12GaugeService3new
FN:18,_RNvNtNtCs4I6j3VtXKYU_20rain_tracker_service8services13gauge_service12default_page
FN:22,_RNvNtNtCs4I6j3VtXKYU_20rain_tracker_service8services13gauge_service17default_page_size
FNDA:0,_RNCNCNCNvMs_NtNtCs7iCqo0KpDVZ_20rain_tracker_service8services13gauge_serviceNtBa_12GaugeService16upsert_summaries000Be_
FNDA:0,_RNCNCNCNvMs_NtNtCs7iCqo0KpDVZ_20rain_tracker_service8services13gauge_serviceNtBa_12GaugeService26handle_new_gauge_discovery000Be_
FNDA:0,_RNCNvMs_NtNtCs7iCqo0KpDVZ_20rain_tracker_service8services13gauge_serviceNtB6_12GaugeService16upsert_summaries0Ba_
FNDA:0,_RNCNvMs_NtNtCs7iCqo0KpDVZ_20rain_tracker_service8services13gauge_serviceNtB6_12GaugeService26handle_new_gauge_discovery0Ba_
FNDA:2,_RNCNvMs_NtNtCs7iCqo0KpDVZ_20rain_tracker_service8services13gauge_serviceNtB6_12GaugeService15get_gauge_by_id0Ba_
FNDA:2,_RNCNvMs_NtNtCs7iCqo0KpDVZ_20rain_tracker_service8services13gauge_serviceNtB6_12GaugeService20get_gauges_paginated0Ba_
FNDA:2,_RNvMNtNtCs7iCqo0KpDVZ_20rain_tracker_service8services13gauge_serviceNtB2_16PaginationParams5limit
FNDA:2,_RNvMNtNtCs7iCqo0KpDVZ_20rain_tracker_service8services13gauge_serviceNtB2_16PaginationParams6offset
FNDA:2,_RNvMs_NtNtCs7iCqo0KpDVZ_20rain_tracker_service8services13gauge_serviceNtB4_12GaugeService15get_gauge_by_id
FNDA:1,_RNvMs_NtNtCs7iCqo0KpDVZ_20rain_tracker_service8services13gauge_serviceNtB4_12GaugeService16upsert_summaries
FNDA:2,_RNvMs_NtNtCs7iCqo0KpDVZ_20rain_tracker_service8services13gauge_serviceNtB4_12GaugeService20get_gauges_paginated
FNDA:6,_RNvMs_NtNtCs7iCqo0KpDVZ_20rain_tracker_service8services13gauge_serviceNtB4_12GaugeService26handle_new_gauge_discovery
FNDA:15,_RNvMs_NtNtCs7iCqo0KpDVZ_20rain_tracker_service8services13gauge_serviceNtB4_12GaugeService3new
FNDA:1,_RNvNtNtCs7iCqo0KpDVZ_20rain_tracker_service8services13gauge_service12default_page
FNDA:1,_RNvNtNtCs7iCqo0KpDVZ_20rain_tracker_service8services13gauge_service17default_page_size
FNDA:1,_RNCNCNCNvMs_NtNtCs7iCqo0KpDVZ_20rain_tracker_service8services13gauge_serviceNtBa_12GaugeService16upsert_summaries000Cs3PAmBzODhhi_19error_handling_test
FNDA:0,_RNCNCNCNvMs_NtNtCs7iCqo0KpDVZ_20rain_tracker_service8services13gauge_serviceNtBa_12GaugeService26handle_new_gauge_discovery000Cs3PAmBzODhhi_19error_handling_test
FNDA:1,_RNCNvMs_NtNtCs7iCqo0KpDVZ_20rain_tracker_service8services13gauge_serviceNtB6_12GaugeService16upsert_summaries0Cs3PAmBzODhhi_19error_handling_test
FNDA:6,_RNCNvMs_NtNtCs7iCqo0KpDVZ_20rain_tracker_service8services13gauge_serviceNtB6_12GaugeService26handle_new_gauge_discovery0Cs3PAmBzODhhi_19error_handling_test
FNDA:0,_RNCNCNCNvMs_NtNtCs7iCqo0KpDVZ_20rain_tracker_service8services13gauge_serviceNtBa_12GaugeService16upsert_summaries000Csdpfhlhhwi2Y_20rain_tracker_service
FNDA:0,_RNCNCNCNvMs_NtNtCs7iCqo0KpDVZ_20rain_tracker_service8services13gauge_serviceNtBa_12GaugeService26handle_new_gauge_discovery000Csdpfhlhhwi2Y_20rain_tracker_service
FNDA:0,_RNCNvMs_NtNtCs7iCqo0KpDVZ_20rain_tracker_service8services13gauge_serviceNtB6_12GaugeService16upsert_summaries0Csdpfhlhhwi2Y_20rain_tracker_service
FNDA:0,_RNCNvMs_NtNtCs7iCqo0KpDVZ_20rain_tracker_service8services13gauge_serviceNtB6_12GaugeService26handle_new_gauge_discovery0Csdpfhlhhwi2Y_20rain_tracker_service
FNDA:0,_RNCNCNCNvMs_NtNtCs4I6j3VtXKYU_20rain_tracker_service8services13gauge_serviceNtBa_12GaugeService16upsert_summaries000Be_
FNDA:0,_RNCNCNCNvMs_NtNtCs4I6j3VtXKYU_20rain_tracker_service8services13gauge_serviceNtBa_12GaugeService26handle_new_gauge_discovery000Be_
FNDA:0,_RNCNvMs_NtNtCs4I6j3VtXKYU_20rain_tracker_service8services13gauge_serviceNtB6_12GaugeService15get_gauge_by_id0Ba_
FNDA:0,_RNCNvMs_NtNtCs4I6j3VtXKYU_20rain_tracker_service8services13gauge_serviceNtB6_12GaugeService16upsert_summaries0Ba_
FNDA:0,_RNCNvMs_NtNtCs4I6j3VtXKYU_20rain_tracker_service8services13gauge_serviceNtB6_12GaugeService20get_gauges_paginated0Ba_
FNDA:0,_RNCNvMs_NtNtCs4I6j3VtXKYU_20rain_tracker_service8services13gauge_serviceNtB6_12GaugeService26handle_new_gauge_discovery0Ba_
FNDA:0,_RNvMNtNtCs4I6j3VtXKYU_20rain_tracker_service8services13gauge_serviceNtB2_16PaginationParams5limit
FNDA:0,_RNvMNtNtCs4I6j3VtXKYU_20rain_tracker_service8services13gauge_serviceNtB2_16PaginationParams6offset
FNDA:0,_RNvMs_NtNtCs4I6j3VtXKYU_20rain_tracker_service8services13gauge_serviceNtB4_12GaugeService15get_gauge_by_id
FNDA:0,_RNvMs_NtNtCs4I6j3VtXKYU_20rain_tracker_service8services13gauge_serviceNtB4_12GaugeService16upsert_summaries
FNDA:0,_RNvMs_NtNtCs4I6j3VtXKYU_20rain_tracker_service8services13gauge_serviceNtB4_12GaugeService20get_gauges_paginated
FNDA:0,_RNvMs_NtNtCs4I6j3VtXKYU_20rain_tracker_service8services13gauge_serviceNtB4_12GaugeService26handle_new_gauge_discovery
FNDA:0,_RNvMs_NtNtCs4I6j3VtXKYU_20rain_tracker_service8services13gauge_serviceNtB4_12GaugeService3new
FNDA:0,_RNvNtNtCs4I6j3VtXKYU_20rain_tracker_service8services13gauge_service12default_page
FNDA:0,_RNvNtNtCs4I6j3VtXKYU_20rain_tracker_service8services13gauge_service17default_page_size
FNF:15
FNH:14
DA:18,1
DA:19,1
DA:20,1
DA:22,1
DA:23,1
DA:24,1
DA:27,2
DA:28,2
DA:29,2
DA:31,2
DA:32,2
DA:33,2
DA:55,15
DA:56,15
DA:57,15
DA:58,15
DA:59,15
DA:60,15
DA:63,2
DA:64,2
DA:65,2
DA:66,2
DA:68,2
DA:69,2
DA:70,2
DA:71,2
DA:72,2
DA:75,2
DA:76,2
DA:77,2
DA:79,2
DA:81,2
DA:82,2
DA:83,2
DA:84,2
DA:85,2
DA:86,2
DA:87,2
DA:88,2
DA:89,2
DA:90,2
DA:91,2
DA:94,2
DA:95,2
DA:96,2
DA:108,6
DA:109,6
DA:110,6
DA:111,6
DA:162,0
DA:163,0
DA:166,0
DA:168,0
DA:169,0
DA:177,6
DA:184,1
DA:189,1
DA:190,1
DA:191,0
DA:193,0
DA:195,1
DA:196,1
DA:197,1
BRF:0
BRH:0
LF:67
LH:60
end_of_record
SF:/Users/terry/RustroverProjects/rain-tracker-service/src/services/reading_service.rs
FN:188,_RNvMNtNtCs7iCqo0KpDVZ_20rain_tracker_service8services15reading_serviceNtB2_14ReadingService14get_month_name
FN:208,_RNvMNtNtCs7iCqo0KpDVZ_20rain_tracker_service8services15reading_serviceNtB2_14ReadingService14get_water_year
FN:113,_RNvMNtNtCs7iCqo0KpDVZ_20rain_tracker_service8services15reading_serviceNtB2_14ReadingService14normalize_zero
FN:106,_RNvMNtNtCs7iCqo0KpDVZ_20rain_tracker_service8services15reading_serviceNtB2_14ReadingService18get_latest_reading
FN:121,_RNvMNtNtCs7iCqo0KpDVZ_20rain_tracker_service8services15reading_serviceNtB2_14ReadingService21water_year_date_range
FN:27,_RNvMNtNtCs7iCqo0KpDVZ_20rain_tracker_service8services15reading_serviceNtB2_14ReadingService22get_water_year_summary
FN:153,_RNvMNtNtCs7iCqo0KpDVZ_20rain_tracker_service8services15reading_serviceNtB2_14ReadingService23build_monthly_summaries
FN:65,_RNvMNtNtCs7iCqo0KpDVZ_20rain_tracker_service8services15reading_serviceNtB2_14ReadingService25get_calendar_year_summary
FN:137,_RNvMNtNtCs7iCqo0KpDVZ_20rain_tracker_service8services15reading_serviceNtB2_14ReadingService29calendar_year_date_range_only
FN:16,_RNvMNtNtCs7iCqo0KpDVZ_20rain_tracker_service8services15reading_serviceNtB2_14ReadingService3new
FN:106,_RNCNvMNtNtCs7iCqo0KpDVZ_20rain_tracker_service8services15reading_serviceNtB4_14ReadingService18get_latest_reading0B8_
FN:31,_RNCNvMNtNtCs7iCqo0KpDVZ_20rain_tracker_service8services15reading_serviceNtB4_14ReadingService22get_water_year_summary0B8_
FN:161,_RNCNvMNtNtCs7iCqo0KpDVZ_20rain_tracker_service8services15reading_serviceNtB4_14ReadingService23build_monthly_summaries0B8_
FN:69,_RNCNvMNtNtCs7iCqo0KpDVZ_20rain_tracker_service8services15reading_serviceNtB4_14ReadingService25get_calendar_year_summary0B8_
FN:106,_RNCNvMNtNtCs4I6j3VtXKYU_20rain_tracker_service8services15reading_serviceNtB4_14ReadingService18get_latest_reading0B8_
FN:31,_RNCNvMNtNtCs4I6j3VtXKYU_20rain_tracker_service8services15reading_serviceNtB4_14ReadingService22get_water_year_summary0B8_
FN:161,_RNCNvMNtNtCs4I6j3VtXKYU_20rain_tracker_service8services15reading_serviceNtB4_14ReadingService23build_monthly_summaries0B8_
FN:69,_RNCNvMNtNtCs4I6j3VtXKYU_20rain_tracker_service8services15reading_serviceNtB4_14ReadingService25get_calendar_year_summary0B8_
FN:188,_RNvMNtNtCs4I6j3VtXKYU_20rain_tracker_service8services15reading_serviceNtB2_14ReadingService14get_month_name
FN:113,_RNvMNtNtCs4I6j3VtXKYU_20rain_tracker_service8services15reading_serviceNtB2_14ReadingService14normalize_zero
FN:106,_RNvMNtNtCs4I6j3VtXKYU_20rain_tracker_service8services15reading_serviceNtB2_14ReadingService18get_latest_reading
FN:121,_RNvMNtNtCs4I6j3VtXKYU_20rain_tracker_service8services15reading_serviceNtB2_14ReadingService21water_year_date_range
FN:27,_RNvMNtNtCs4I6j3VtXKYU_20rain_tracker_service8services15reading_serviceNtB2_14ReadingService22get_water_year_summary
FN:153,_RNvMNtNtCs4I6j3VtXKYU_20rain_tracker_service8services15reading_serviceNtB2_14ReadingService23build_monthly_summaries
FN:65,_RNvMNtNtCs4I6j3VtXKYU_20rain_tracker_service8services15reading_serviceNtB2_14ReadingService25get_calendar_year_summary
FN:137,_RNvMNtNtCs4I6j3VtXKYU_20rain_tracker_service8services15reading_serviceNtB2_14ReadingService29calendar_year_date_range_only
FN:16,_RNvMNtNtCs4I6j3VtXKYU_20rain_tracker_service8services15reading_serviceNtB2_14ReadingService3new
FN:208,_RNvMNtNtCs4I6j3VtXKYU_20rain_tracker_service8services15reading_serviceNtB2_14ReadingService14get_water_year
FN:226,_RNvNtNtNtCs4I6j3VtXKYU_20rain_tracker_service8services15reading_service5testss_19test_get_water_year
FNDA:36,_RNvMNtNtCs7iCqo0KpDVZ_20rain_tracker_service8services15reading_serviceNtB2_14ReadingService14get_month_name
FNDA:1,_RNvMNtNtCs7iCqo0KpDVZ_20rain_tracker_service8services15reading_serviceNtB2_14ReadingService14get_water_year
FNDA:6,_RNvMNtNtCs7iCqo0KpDVZ_20rain_tracker_service8services15reading_serviceNtB2_14ReadingService14normalize_zero
FNDA:3,_RNvMNtNtCs7iCqo0KpDVZ_20rain_tracker_service8services15reading_serviceNtB2_14ReadingService18get_latest_reading
FNDA:3,_RNvMNtNtCs7iCqo0KpDVZ_20rain_tracker_service8services15reading_serviceNtB2_14ReadingService21water_year_date_range
FNDA:3,_RNvMNtNtCs7iCqo0KpDVZ_20rain_tracker_service8services15reading_serviceNtB2_14ReadingService22get_water_year_summary
FNDA:3,_RNvMNtNtCs7iCqo0KpDVZ_20rain_tracker_service8services15reading_serviceNtB2_14ReadingService23build_monthly_summaries
FNDA:3,_RNvMNtNtCs7iCqo0KpDVZ_20rain_tracker_service8services15reading_serviceNtB2_14ReadingService25get_calendar_year_summary
FNDA:3,_RNvMNtNtCs7iCqo0KpDVZ_20rain_tracker_service8services15reading_serviceNtB2_14ReadingService29calendar_year_date_range_only
FNDA:16,_RNvMNtNtCs7iCqo0KpDVZ_20rain_tracker_service8services15reading_serviceNtB2_14ReadingService3new
FNDA:3,_RNCNvMNtNtCs7iCqo0KpDVZ_20rain_tracker_service8services15reading_serviceNtB4_14ReadingService18get_latest_reading0B8_
FNDA:3,_RNCNvMNtNtCs7iCqo0KpDVZ_20rain_tracker_service8services15reading_serviceNtB4_14ReadingService22get_water_year_summary0B8_
FNDA:8,_RNCNvMNtNtCs7iCqo0KpDVZ_20rain_tracker_service8services15reading_serviceNtB4_14ReadingService23build_monthly_summaries0B8_
FNDA:3,_RNCNvMNtNtCs7iCqo0KpDVZ_20rain_tracker_service8services15reading_serviceNtB4_14ReadingService25get_calendar_year_summary0B8_
FNDA:0,_RNCNvMNtNtCs4I6j3VtXKYU_20rain_tracker_service8services15reading_serviceNtB4_14ReadingService18get_latest_reading0B8_
FNDA:0,_RNCNvMNtNtCs4I6j3VtXKYU_20rain_tracker_service8services15reading_serviceNtB4_14ReadingService22get_water_year_summary0B8_
FNDA:0,_RNCNvMNtNtCs4I6j3VtXKYU_20rain_tracker_service8services15reading_serviceNtB4_14ReadingService23build_monthly_summaries0B8_
FNDA:0,_RNCNvMNtNtCs4I6j3VtXKYU_20rain_tracker_service8services15reading_serviceNtB4_14ReadingService25get_calendar_year_summary0B8_
FNDA:0,_RNvMNtNtCs4I6j3VtXKYU_20rain_tracker_service8services15reading_serviceNtB2_14ReadingService14get_month_name
FNDA:0,_RNvMNtNtCs4I6j3VtXKYU_20rain_tracker_service8services15reading_serviceNtB2_14ReadingService14normalize_zero
FNDA:0,_RNvMNtNtCs4I6j3VtXKYU_20rain_tracker_service8services15reading_serviceNtB2_14ReadingService18get_latest_reading
FNDA:0,_RNvMNtNtCs4I6j3VtXKYU_20rain_tracker_service8services15reading_serviceNtB2_14ReadingService21water_year_date_range
FNDA:0,_RNvMNtNtCs4I6j3VtXKYU_20rain_tracker_service8services15reading_serviceNtB2_14ReadingService22get_water_year_summary
FNDA:0,_RNvMNtNtCs4I6j3VtXKYU_20rain_tracker_service8services15reading_serviceNtB2_14ReadingService23build_monthly_summaries
FNDA:0,_RNvMNtNtCs4I6j3VtXKYU_20rain_tracker_service8services15reading_serviceNtB2_14ReadingService25get_calendar_year_summary
FNDA:0,_RNvMNtNtCs4I6j3VtXKYU_20rain_tracker_service8services15reading_serviceNtB2_14ReadingService29calendar_year_date_range_only
FNDA:0,_RNvMNtNtCs4I6j3VtXKYU_20rain_tracker_service8services15reading_serviceNtB2_14ReadingService3new
FNDA:3,_RNvMNtNtCs4I6j3VtXKYU_20rain_tracker_service8services15reading_serviceNtB2_14ReadingService14get_water_year
FNDA:1,_RNvNtNtNtCs4I6j3VtXKYU_20rain_tracker_service8services15reading_service5testss_19test_get_water_year
FNF:15
FNH:15
DA:16,16
DA:17,16
DA:18,16
DA:19,16
DA:20,16
DA:21,16
DA:22,16
DA:23,16
DA:24,16
DA:27,3
DA:28,3
DA:29,3
DA:30,3
DA:31,3
DA:33,3
DA:36,3
DA:37,3
DA:38,3
DA:39,3
DA:42,3
DA:43,3
DA:44,3
DA:45,3
DA:48,3
DA:51,3
DA:52,3
DA:53,3
DA:54,3
DA:56,3
DA:57,3
DA:58,3
DA:59,3
DA:60,3
DA:61,3
DA:62,3
DA:65,3
DA:66,3
DA:67,3
DA:68,3
DA:69,3
DA:71,3
DA:74,3
DA:75,3
DA:76,3
DA:77,3
DA:80,3
DA:81,3
DA:82,3
DA:83,3
DA:86,3
DA:87,3
DA:88,3
DA:89,3
DA:92,3
DA:94,3
DA:96,3
DA:97,3
DA:98,3
DA:99,3
DA:100,3
DA:101,3
DA:102,3
DA:103,3
DA:106,3
DA:107,3
DA:108,3
DA:113,6
DA:114,6
DA:115,2
DA:117,4
DA:119,6
DA:121,3
DA:122,3
DA:123,3
DA:124,3
DA:125,3
DA:126,3
DA:127,3
DA:128,3
DA:129,3
DA:131,3
DA:132,3
DA:134,3
DA:135,3
DA:137,3
DA:138,3
DA:139,3
DA:140,3
DA:141,3
DA:142,3
DA:143,3
DA:144,3
DA:145,3
DA:147,3
DA:148,3
DA:150,3
DA:151,3
DA:153,3
DA:154,3
DA:155,3
DA:156,3
DA:157,3
DA:160,3
DA:161,8
DA:163,39
DA:164,36
DA:165,8
DA:166,8
DA:167,8
DA:168,8
DA:169,8
DA:170,8
DA:171,8
DA:172,8
DA:173,28
DA:174,28
DA:175,28
DA:176,28
DA:177,28
DA:178,28
DA:179,28
DA:180,28
DA:181,28
DA:182,28
DA:185,3
DA:186,3
DA:188,36
DA:189,36
DA:190,3
DA:191,3
DA:192,3
DA:193,3
DA:194,3
DA:195,3
DA:196,3
DA:197,3
DA:198,3
DA:199,3
DA:200,3
DA:201,3
DA:202,0
DA:204,36
DA:205,36
DA:208,4
DA:209,4
DA:210,4
DA:212,4
DA:213,3
DA:215,1
DA:217,4
DA:226,1
DA:227,1
DA:228,1
DA:230,1
DA:231,1
DA:233,1
DA:234,1
DA:235,1
BRF:0
BRH:0
LF:162
LH:161
end_of_record
SF:/Users/terry/RustroverProjects/rain-tracker-service/src/utils.rs
FN:19,_RNvNtCs7iCqo0KpDVZ_20rain_tracker_service5utils18extract_station_id
FN:23,_RNCNvNtCs7iCqo0KpDVZ_20rain_tracker_service5utils18extract_station_id0B5_
FN:29,_RNCNvNtCs7iCqo0KpDVZ_20rain_tracker_service5utils18extract_station_ids_0B5_
FN:84,_RNvNtNtCs4I6j3VtXKYU_20rain_tracker_service5utils5testss_32test_extract_station_id_too_long
FN:79,_RNvNtNtCs4I6j3VtXKYU_20rain_tracker_service5utils5testss_33test_extract_station_id_too_short
FN:71,_RNvNtNtCs4I6j3VtXKYU_20rain_tracker_service5utils5testss_34test_extract_station_id_with_prior
FN:89,_RNvNtNtCs4I6j3VtXKYU_20rain_tracker_service5utils5testss_35test_extract_station_id_non_numeric
FN:48,_RNvNtNtCs4I6j3VtXKYU_20rain_tracker_service5utils5testss_36test_extract_station_id_4digit_clean
FN:43,_RNvNtNtCs4I6j3VtXKYU_20rain_tracker_service5utils5testss_36test_extract_station_id_5digit_clean
FN:94,_RNvNtNtCs4I6j3VtXKYU_20rain_tracker_service5utils5testss_38test_extract_station_id_leading_digits
FN:63,_RNvNtNtCs4I6j3VtXKYU_20rain_tracker_service5utils5testss_41test_extract_station_id_with_installation
FN:58,_RNvNtNtCs4I6j3VtXKYU_20rain_tracker_service5utils5testss_41test_extract_station_id_with_since_4digit
FN:53,_RNvNtNtCs4I6j3VtXKYU_20rain_tracker_service5utils5testss_41test_extract_station_id_with_since_5digit
FN:19,_RNvNtCs4I6j3VtXKYU_20rain_tracker_service5utils18extract_station_id
FN:23,_RNCNvNtCs4I6j3VtXKYU_20rain_tracker_service5utils18extract_station_id0B5_
FN:29,_RNCNvNtCs4I6j3VtXKYU_20rain_tracker_service5utils18extract_station_ids_0B5_
FNDA:10,_RNvNtCs7iCqo0KpDVZ_20rain_tracker_service5utils18extract_station_id
FNDA:45,_RNCNvNtCs7iCqo0KpDVZ_20rain_tracker_service5utils18extract_station_id0B5_
FNDA:0,_RNCNvNtCs7iCqo0KpDVZ_20rain_tracker_service5utils18extract_station_ids_0B5_
FNDA:1,_RNvNtNtCs4I6j3VtXKYU_20rain_tracker_service5utils5testss_32test_extract_station_id_too_long
FNDA:1,_RNvNtNtCs4I6j3VtXKYU_20rain_tracker_service5utils5testss_33test_extract_station_id_too_short
FNDA:1,_RNvNtNtCs4I6j3VtXKYU_20rain_tracker_service5utils5testss_34test_extract_station_id_with_prior
FNDA:1,_RNvNtNtCs4I6j3VtXKYU_20rain_tracker_service5utils5testss_35test_extract_station_id_non_numeric
FNDA:1,_RNvNtNtCs4I6j3VtXKYU_20rain_tracker_service5utils5testss_36test_extract_station_id_4digit_clean
FNDA:1,_RNvNtNtCs4I6j3VtXKYU_20rain_tracker_service5utils5testss_36test_extract_station_id_5digit_clean
FNDA:1,_RNvNtNtCs4I6j3VtXKYU_20rain_tracker_service5utils5testss_38test_extract_station_id_leading_digits
FNDA:1,_RNvNtNtCs4I6j3VtXKYU_20rain_tracker_service5utils5testss_41test_extract_station_id_with_installation
FNDA:1,_RNvNtNtCs4I6j3VtXKYU_20rain_tracker_service5utils5testss_41test_extract_station_id_with_since_4digit
FNDA:1,_RNvNtNtCs4I6j3VtXKYU_20rain_tracker_service5utils5testss_41test_extract_station_id_with_since_5digit
FNDA:39,_RNvNtCs4I6j3VtXKYU_20rain_tracker_service5utils18extract_station_id
FNDA:151,_RNCNvNtCs4I6j3VtXKYU_20rain_tracker_service5utils18extract_station_id0B5_
FNDA:33,_RNCNvNtCs4I6j3VtXKYU_20rain_tracker_service5utils18extract_station_ids_0B5_
FNF:13
FNH:13
DA:19,49
DA:21,49
DA:22,49
DA:23,196
DA:24,40
DA:25,9
DA:29,33
DA:30,9
DA:31,9
DA:32,2
DA:33,7
DA:35,7
DA:36,49
DA:43,1
DA:44,1
DA:45,1
DA:48,1
DA:49,1
DA:50,1
DA:53,1
DA:54,1
DA:55,1
DA:58,1
DA:59,1
DA:60,1
DA:63,1
DA:64,1
DA:65,1
DA:68,1
DA:71,1
DA:72,1
DA:73,1
DA:76,1
DA:79,1
DA:80,1
DA:81,1
DA:84,1
DA:85,1
DA:86,1
DA:89,1
DA:90,1
DA:91,1
DA:94,1
DA:96,1
DA:97,1
BRF:0
BRH:0
LF:47
LH:47
end_of_record
SF:/Users/terry/RustroverProjects/rain-tracker-service/src/workers/fopr_import_worker.rs
FN:69,_RNCNvMNtNtCs7iCqo0KpDVZ_20rain_tracker_service7workers18fopr_import_workerNtB4_16FoprImportWorker16process_next_job0B8_
FN:45,_RNCNvMNtNtCs7iCqo0KpDVZ_20rain_tracker_service7workers18fopr_import_workerNtB4_16FoprImportWorker3run0B8_
FN:69,_RNvMNtNtCs7iCqo0KpDVZ_20rain_tracker_service7workers18fopr_import_workerNtB2_16FoprImportWorker16process_next_job
FN:23,_RNvMNtNtCs7iCqo0KpDVZ_20rain_tracker_service7workers18fopr_import_workerNtB2_16FoprImportWorker3new
FN:45,_RNvMNtNtCs7iCqo0KpDVZ_20rain_tracker_service7workers18fopr_import_workerNtB2_16FoprImportWorker3run
FN:69,_RNCNvMNtNtCs7iCqo0KpDVZ_20rain_tracker_service7workers18fopr_import_workerNtB4_16FoprImportWorker16process_next_job0Csdpfhlhhwi2Y_20rain_tracker_service
FN:45,_RNCNvMNtNtCs7iCqo0KpDVZ_20rain_tracker_service7workers18fopr_import_workerNtB4_16FoprImportWorker3run0Csdpfhlhhwi2Y_20rain_tracker_service
FN:69,_RNCNvMNtNtCs4I6j3VtXKYU_20rain_tracker_service7workers18fopr_import_workerNtB4_16FoprImportWorker16process_next_job0B8_
FN:45,_RNCNvMNtNtCs4I6j3VtXKYU_20rain_tracker_service7workers18fopr_import_workerNtB4_16FoprImportWorker3run0B8_
FN:69,_RNvMNtNtCs4I6j3VtXKYU_20rain_tracker_service7workers18fopr_import_workerNtB2_16FoprImportWorker16process_next_job
FN:23,_RNvMNtNtCs4I6j3VtXKYU_20rain_tracker_service7workers18fopr_import_workerNtB2_16FoprImportWorker3new
FN:45,_RNvMNtNtCs4I6j3VtXKYU_20rain_tracker_service7workers18fopr_import_workerNtB2_16FoprImportWorker3run
FNDA:0,_RNCNvMNtNtCs7iCqo0KpDVZ_20rain_tracker_service7workers18fopr_import_workerNtB4_16FoprImportWorker16process_next_job0B8_
FNDA:0,_RNCNvMNtNtCs7iCqo0KpDVZ_20rain_tracker_service7workers18fopr_import_workerNtB4_16FoprImportWorker3run0B8_
FNDA:0,_RNvMNtNtCs7iCqo0KpDVZ_20rain_tracker_service7workers18fopr_import_workerNtB2_16FoprImportWorker16process_next_job
FNDA:16,_RNvMNtNtCs7iCqo0KpDVZ_20rain_tracker_service7workers18fopr_import_workerNtB2_16FoprImportWorker3new
FNDA:0,_RNvMNtNtCs7iCqo0KpDVZ_20rain_tracker_service7workers18fopr_import_workerNtB2_16FoprImportWorker3run
FNDA:0,_RNCNvMNtNtCs7iCqo0KpDVZ_20rain_tracker_service7workers18fopr_import_workerNtB4_16FoprImportWorker16process_next_job0Csdpfhlhhwi2Y_20rain_tracker_service
FNDA:0,_RNCNvMNtNtCs7iCqo0KpDVZ_20rain_tracker_service7workers18fopr_import_workerNtB4_16FoprImportWorker3run0Csdpfhlhhwi2Y_20rain_tracker_service
FNDA:0,_RNCNvMNtNtCs4I6j3VtXKYU_20rain_tracker_service7workers18fopr_import_workerNtB4_16FoprImportWorker16process_next_job0B8_
FNDA:0,_RNCNvMNtNtCs4I6j3VtXKYU_20rain_tracker_service7workers18fopr_import_workerNtB4_16FoprImportWorker3run0B8_
FNDA:0,_RNvMNtNtCs4I6j3VtXKYU_20rain_tracker_service7workers18fopr_import_workerNtB2_16FoprImportWorker16process_next_job
FNDA:0,_RNvMNtNtCs4I6j3VtXKYU_20rain_tracker_service7workers18fopr_import_workerNtB2_16FoprImportWorker3new
FNDA:0,_RNvMNtNtCs4I6j3VtXKYU_20rain_tracker_service7workers18fopr_import_workerNtB2_16FoprImportWorker3run
FNF:5
FNH:1
DA:23,16
DA:24,16
DA:25,16
DA:26,16
DA:27,16
DA:28,16
DA:29,16
DA:30,16
DA:31,16
DA:32,16
DA:33,16
DA:34,16
DA:35,16
DA:45,0
DA:65,0
DA:69,0
DA:174,0
BRF:0
BRH:0
LF:19
LH:13
end_of_record